(lp0
(S'cppflags'
p1
ccopy_reg
_reconstructor
p2
(cino.utils
SpaceList
p3
c__builtin__
list
p4
(lp5
S'-mmcu=atmega328p'
p6
aS'-DF_CPU=16000000L'
p7
aS'-DARDUINO=101'
p8
aS'-I/usr/share/arduino/hardware/arduino/cores/arduino'
p9
aS'-ffunction-sections'
p10
aS'-fdata-sections'
p11
aS'-g'
p12
aS'-Os'
p13
aS'-w'
p14
aS'-I/usr/share/arduino/hardware/arduino/variants/standard'
p15
aS'-I/usr/share/arduino/libraries/Servo'
p16
aS'-I/usr/share/arduino/hardware/arduino/cores/arduino'
p17
atp18
Rp19
tp20
a(S'cc'
p21
S'/usr/bin/avr-gcc'
p22
tp23
a(S'build_dir'
p24
S'.build/uno'
p25
tp26
a(S'avrdude'
p27
S'/usr/share/arduino/hardware/tools/avrdude'
p28
tp29
a(S'ar'
p30
S'/usr/bin/avr-ar'
p31
tp32
a(S'names'
p33
(dp34
S'cpp'
p35
S'%s.cpp'
p36
sS'obj'
p37
S'%s.o'
p38
sS'lib'
p39
S'lib%s.a'
p40
sS'deps'
p41
S'%s.d'
p42
stp43
a(S'ldflags'
p44
g2
(g3
g4
(lp45
g6
aS'-Wl,-Os'
p46
aS'-Wl,--gc-sections'
p47
atp48
Rp49
tp50
a(S'arduino_lib_version'
p51
g2
(cino.environment
Version
p52
c__builtin__
tuple
p53
(I1
I0
I1
tp54
tp55
Rp56
tp57
a(S'objcopy'
p58
S'/usr/bin/avr-objcopy'
p59
tp60
a(S'board_models'
p61
cino.environment
BoardModels
p62
((lp63
(lp64
S'uno'
p65
a(dp66
S'_coredir'
p67
S'/usr/share/arduino/hardware/arduino'
p68
sS'bootloader'
p69
(dp70
S'extended_fuses'
p71
S'0x05'
p72
sS'high_fuses'
p73
S'0xde'
p74
sS'low_fuses'
p75
S'0xff'
p76
sS'lock_bits'
p77
S'0x0F'
p78
sS'file'
p79
S'optiboot_atmega328.hex'
p80
sS'path'
p81
S'optiboot'
p82
sS'unlock_bits'
p83
S'0x3F'
p84
ssS'upload'
p85
(dp86
S'protocol'
p87
S'arduino'
p88
sS'maximum_size'
p89
S'32256'
p90
sS'speed'
p91
S'115200'
p92
ssS'name'
p93
S'Arduino Uno'
p94
sS'build'
p95
(dp96
S'core'
p97
S'arduino'
p98
sS'mcu'
p99
S'atmega328p'
p100
sS'f_cpu'
p101
S'16000000L'
p102
sS'variant'
p103
S'standard'
p104
ssaa(lp105
S'atmega328'
p106
a(dp107
g67
S'/usr/share/arduino/hardware/arduino'
p108
sS'bootloader'
p109
(dp110
S'extended_fuses'
p111
S'0x05'
p112
sS'high_fuses'
p113
S'0xDA'
p114
sS'low_fuses'
p115
S'0xFF'
p116
sS'lock_bits'
p117
S'0x0F'
p118
sS'file'
p119
S'ATmegaBOOT_168_atmega328.hex'
p120
sS'path'
p121
S'atmega'
p122
sS'unlock_bits'
p123
S'0x3F'
p124
ssS'upload'
p125
(dp126
S'protocol'
p127
S'arduino'
p128
sS'maximum_size'
p129
S'30720'
p130
sS'speed'
p131
S'57600'
p132
ssS'name'
p133
S'Arduino Duemilanove w/ ATmega328'
p134
sS'build'
p135
(dp136
S'core'
p137
S'arduino'
p138
sS'mcu'
p139
S'atmega328p'
p140
sS'f_cpu'
p141
S'16000000L'
p142
sS'variant'
p143
S'standard'
p144
ssaa(lp145
S'diecimila'
p146
a(dp147
g67
S'/usr/share/arduino/hardware/arduino'
p148
sS'bootloader'
p149
(dp150
S'extended_fuses'
p151
S'0x00'
p152
sS'high_fuses'
p153
S'0xdd'
p154
sS'low_fuses'
p155
S'0xff'
p156
sS'lock_bits'
p157
S'0x0F'
p158
sS'file'
p159
S'ATmegaBOOT_168_diecimila.hex'
p160
sS'path'
p161
S'atmega'
p162
sS'unlock_bits'
p163
S'0x3F'
p164
ssS'upload'
p165
(dp166
S'protocol'
p167
S'arduino'
p168
sS'maximum_size'
p169
S'14336'
p170
sS'speed'
p171
S'19200'
p172
ssS'name'
p173
S'Arduino Diecimila or Duemilanove w/ ATmega168'
p174
sS'build'
p175
(dp176
S'core'
p177
S'arduino'
p178
sS'mcu'
p179
S'atmega168'
p180
sS'f_cpu'
p181
S'16000000L'
p182
sS'variant'
p183
S'standard'
p184
ssaa(lp185
S'nano328'
p186
a(dp187
g67
S'/usr/share/arduino/hardware/arduino'
p188
sS'bootloader'
p189
(dp190
S'extended_fuses'
p191
S'0x05'
p192
sS'high_fuses'
p193
S'0xDA'
p194
sS'low_fuses'
p195
S'0xFF'
p196
sS'lock_bits'
p197
S'0x0F'
p198
sS'file'
p199
S'ATmegaBOOT_168_atmega328.hex'
p200
sS'path'
p201
S'atmega'
p202
sS'unlock_bits'
p203
S'0x3F'
p204
ssS'upload'
p205
(dp206
S'protocol'
p207
S'arduino'
p208
sS'maximum_size'
p209
S'30720'
p210
sS'speed'
p211
S'57600'
p212
ssS'name'
p213
S'Arduino Nano w/ ATmega328'
p214
sS'build'
p215
(dp216
S'core'
p217
S'arduino'
p218
sS'mcu'
p219
S'atmega328p'
p220
sS'f_cpu'
p221
S'16000000L'
p222
sS'variant'
p223
S'eightanaloginputs'
p224
ssaa(lp225
S'nano'
p226
a(dp227
g67
S'/usr/share/arduino/hardware/arduino'
p228
sS'bootloader'
p229
(dp230
S'extended_fuses'
p231
S'0x00'
p232
sS'high_fuses'
p233
S'0xdd'
p234
sS'low_fuses'
p235
S'0xff'
p236
sS'lock_bits'
p237
S'0x0F'
p238
sS'file'
p239
S'ATmegaBOOT_168_diecimila.hex'
p240
sS'path'
p241
S'atmega'
p242
sS'unlock_bits'
p243
S'0x3F'
p244
ssS'upload'
p245
(dp246
S'protocol'
p247
S'arduino'
p248
sS'maximum_size'
p249
S'14336'
p250
sS'speed'
p251
S'19200'
p252
ssS'name'
p253
S'Arduino Nano w/ ATmega168'
p254
sS'build'
p255
(dp256
S'core'
p257
S'arduino'
p258
sS'mcu'
p259
S'atmega168'
p260
sS'f_cpu'
p261
S'16000000L'
p262
sS'variant'
p263
S'eightanaloginputs'
p264
ssaa(lp265
S'mega2560'
p266
a(dp267
g67
S'/usr/share/arduino/hardware/arduino'
p268
sS'bootloader'
p269
(dp270
S'extended_fuses'
p271
S'0xFD'
p272
sS'high_fuses'
p273
S'0xD8'
p274
sS'low_fuses'
p275
S'0xFF'
p276
sS'lock_bits'
p277
S'0x0F'
p278
sS'file'
p279
S'stk500boot_v2_mega2560.hex'
p280
sS'path'
p281
S'stk500v2'
p282
sS'unlock_bits'
p283
S'0x3F'
p284
ssS'upload'
p285
(dp286
S'protocol'
p287
S'stk500v2'
p288
sS'maximum_size'
p289
S'258048'
p290
sS'speed'
p291
S'115200'
p292
ssS'name'
p293
S'Arduino Mega 2560 or Mega ADK'
p294
sS'build'
p295
(dp296
S'core'
p297
S'arduino'
p298
sS'mcu'
p299
S'atmega2560'
p300
sS'f_cpu'
p301
S'16000000L'
p302
sS'variant'
p303
S'mega'
p304
ssaa(lp305
S'mega'
p306
a(dp307
g67
S'/usr/share/arduino/hardware/arduino'
p308
sS'bootloader'
p309
(dp310
S'extended_fuses'
p311
S'0xF5'
p312
sS'high_fuses'
p313
S'0xDA'
p314
sS'low_fuses'
p315
S'0xFF'
p316
sS'lock_bits'
p317
S'0x0F'
p318
sS'file'
p319
S'ATmegaBOOT_168_atmega1280.hex'
p320
sS'path'
p321
S'atmega'
p322
sS'unlock_bits'
p323
S'0x3F'
p324
ssS'upload'
p325
(dp326
S'protocol'
p327
S'arduino'
p328
sS'maximum_size'
p329
S'126976'
p330
sS'speed'
p331
S'57600'
p332
ssS'name'
p333
S'Arduino Mega (ATmega1280)'
p334
sS'build'
p335
(dp336
S'core'
p337
S'arduino'
p338
sS'mcu'
p339
S'atmega1280'
p340
sS'f_cpu'
p341
S'16000000L'
p342
sS'variant'
p343
S'mega'
p344
ssaa(lp345
S'leonardo'
p346
a(dp347
g67
S'/usr/share/arduino/hardware/arduino'
p348
sS'bootloader'
p349
(dp350
S'extended_fuses'
p351
S'0xcb'
p352
sS'high_fuses'
p353
S'0xd8'
p354
sS'low_fuses'
p355
S'0xff'
p356
sS'lock_bits'
p357
S'0x2F'
p358
sS'file'
p359
S'Caterina-Leonardo.hex'
p360
sS'path'
p361
S'caterina'
p362
sS'unlock_bits'
p363
S'0x3F'
p364
ssS'upload'
p365
(dp366
S'protocol'
p367
S'avr109'
p368
sS'maximum_size'
p369
S'28672'
p370
sS'speed'
p371
S'57600'
p372
sS'disable_flushing'
p373
S'true'
p374
ssS'name'
p375
S'Arduino Leonardo'
p376
sS'build'
p377
(dp378
S'core'
p379
S'arduino'
p380
sS'f_cpu'
p381
S'16000000L'
p382
sS'vid'
p383
S'0x2341'
p384
sS'pid'
p385
S'0x8036'
p386
sS'variant'
p387
S'leonardo'
p388
sS'mcu'
p389
S'atmega32u4'
p390
ssaa(lp391
S'mini328'
p392
a(dp393
g67
S'/usr/share/arduino/hardware/arduino'
p394
sS'bootloader'
p395
(dp396
S'extended_fuses'
p397
S'0x05'
p398
sS'high_fuses'
p399
S'0xd8'
p400
sS'low_fuses'
p401
S'0xff'
p402
sS'lock_bits'
p403
S'0x0F'
p404
sS'file'
p405
S'optiboot_atmega328-Mini.hex'
p406
sS'path'
p407
S'optiboot'
p408
sS'unlock_bits'
p409
S'0x3F'
p410
ssS'upload'
p411
(dp412
S'protocol'
p413
S'arduino'
p414
sS'maximum_size'
p415
S'28672'
p416
sS'speed'
p417
S'115200'
p418
ssS'name'
p419
S'Arduino Mini w/ ATmega328'
p420
sS'build'
p421
(dp422
S'core'
p423
S'arduino'
p424
sS'mcu'
p425
S'atmega328p'
p426
sS'f_cpu'
p427
S'16000000L'
p428
sS'variant'
p429
S'eightanaloginputs'
p430
ssaa(lp431
S'mini'
p432
a(dp433
g67
S'/usr/share/arduino/hardware/arduino'
p434
sS'bootloader'
p435
(dp436
S'extended_fuses'
p437
S'0x00'
p438
sS'high_fuses'
p439
S'0xdd'
p440
sS'low_fuses'
p441
S'0xff'
p442
sS'lock_bits'
p443
S'0x0F'
p444
sS'file'
p445
S'ATmegaBOOT_168_ng.hex'
p446
sS'path'
p447
S'atmega'
p448
sS'unlock_bits'
p449
S'0x3F'
p450
ssS'upload'
p451
(dp452
S'protocol'
p453
S'arduino'
p454
sS'maximum_size'
p455
S'14336'
p456
sS'speed'
p457
S'19200'
p458
ssS'name'
p459
S'Arduino Mini w/ ATmega168'
p460
sS'build'
p461
(dp462
S'core'
p463
S'arduino'
p464
sS'mcu'
p465
S'atmega168'
p466
sS'f_cpu'
p467
S'16000000L'
p468
sS'variant'
p469
S'eightanaloginputs'
p470
ssaa(lp471
S'ethernet'
p472
a(dp473
g67
S'/usr/share/arduino/hardware/arduino'
p474
sS'bootloader'
p475
(dp476
S'extended_fuses'
p477
S'0x05'
p478
sS'high_fuses'
p479
S'0xde'
p480
sS'low_fuses'
p481
S'0xff'
p482
sS'lock_bits'
p483
S'0x0F'
p484
sS'file'
p485
S'optiboot_atmega328.hex'
p486
sS'path'
p487
S'optiboot'
p488
sS'unlock_bits'
p489
S'0x3F'
p490
ssS'upload'
p491
(dp492
S'protocol'
p493
S'arduino'
p494
sS'maximum_size'
p495
S'32256'
p496
sS'speed'
p497
S'115200'
p498
ssS'name'
p499
S'Arduino Ethernet'
p500
sS'build'
p501
(dp502
S'variant'
p503
S'standard'
p504
sS'mcu'
p505
S'atmega328p'
p506
sS'f_cpu'
p507
S'16000000L'
p508
sS'core'
p509
S'arduino'
p510
ssaa(lp511
S'fio'
p512
a(dp513
g67
S'/usr/share/arduino/hardware/arduino'
p514
sS'bootloader'
p515
(dp516
S'extended_fuses'
p517
S'0x05'
p518
sS'high_fuses'
p519
S'0xDA'
p520
sS'low_fuses'
p521
S'0xFF'
p522
sS'lock_bits'
p523
S'0x0F'
p524
sS'file'
p525
S'ATmegaBOOT_168_atmega328_pro_8MHz.hex'
p526
sS'path'
p527
S'arduino:atmega'
p528
sS'unlock_bits'
p529
S'0x3F'
p530
ssS'upload'
p531
(dp532
S'protocol'
p533
S'arduino'
p534
sS'maximum_size'
p535
S'30720'
p536
sS'speed'
p537
S'57600'
p538
ssS'name'
p539
S'Arduino Fio'
p540
sS'build'
p541
(dp542
S'core'
p543
S'arduino'
p544
sS'mcu'
p545
S'atmega328p'
p546
sS'f_cpu'
p547
S'8000000L'
p548
sS'variant'
p549
S'eightanaloginputs'
p550
ssaa(lp551
S'bt328'
p552
a(dp553
g67
S'/usr/share/arduino/hardware/arduino'
p554
sS'bootloader'
p555
(dp556
S'extended_fuses'
p557
S'0x05'
p558
sS'high_fuses'
p559
S'0xd8'
p560
sS'low_fuses'
p561
S'0xff'
p562
sS'lock_bits'
p563
S'0x0F'
p564
sS'file'
p565
S'ATmegaBOOT_168_atmega328_bt.hex'
p566
sS'path'
p567
S'bt'
p568
sS'unlock_bits'
p569
S'0x3F'
p570
ssS'upload'
p571
(dp572
S'protocol'
p573
S'arduino'
p574
sS'maximum_size'
p575
S'28672'
p576
sS'speed'
p577
S'19200'
p578
sS'disable_flushing'
p579
S'true'
p580
ssS'name'
p581
S'Arduino BT w/ ATmega328'
p582
sS'build'
p583
(dp584
S'core'
p585
S'arduino'
p586
sS'mcu'
p587
S'atmega328p'
p588
sS'f_cpu'
p589
S'16000000L'
p590
sS'variant'
p591
S'eightanaloginputs'
p592
ssaa(lp593
S'bt'
p594
a(dp595
g67
S'/usr/share/arduino/hardware/arduino'
p596
sS'bootloader'
p597
(dp598
S'extended_fuses'
p599
S'0x00'
p600
sS'high_fuses'
p601
S'0xdd'
p602
sS'low_fuses'
p603
S'0xff'
p604
sS'lock_bits'
p605
S'0x0F'
p606
sS'file'
p607
S'ATmegaBOOT_168.hex'
p608
sS'path'
p609
S'bt'
p610
sS'unlock_bits'
p611
S'0x3F'
p612
ssS'upload'
p613
(dp614
S'protocol'
p615
S'arduino'
p616
sS'maximum_size'
p617
S'14336'
p618
sS'speed'
p619
S'19200'
p620
sS'disable_flushing'
p621
S'true'
p622
ssS'name'
p623
S'Arduino BT w/ ATmega168'
p624
sS'build'
p625
(dp626
S'core'
p627
S'arduino'
p628
sS'mcu'
p629
S'atmega168'
p630
sS'f_cpu'
p631
S'16000000L'
p632
sS'variant'
p633
S'eightanaloginputs'
p634
ssaa(lp635
S'lilypad328'
p636
a(dp637
g67
S'/usr/share/arduino/hardware/arduino'
p638
sS'bootloader'
p639
(dp640
S'extended_fuses'
p641
S'0x05'
p642
sS'high_fuses'
p643
S'0xDA'
p644
sS'low_fuses'
p645
S'0xFF'
p646
sS'lock_bits'
p647
S'0x0F'
p648
sS'file'
p649
S'ATmegaBOOT_168_atmega328_pro_8MHz.hex'
p650
sS'path'
p651
S'atmega'
p652
sS'unlock_bits'
p653
S'0x3F'
p654
ssS'upload'
p655
(dp656
S'protocol'
p657
S'arduino'
p658
sS'maximum_size'
p659
S'30720'
p660
sS'speed'
p661
S'57600'
p662
ssS'name'
p663
S'LilyPad Arduino w/ ATmega328'
p664
sS'build'
p665
(dp666
S'core'
p667
S'arduino'
p668
sS'mcu'
p669
S'atmega328p'
p670
sS'f_cpu'
p671
S'8000000L'
p672
sS'variant'
p673
S'standard'
p674
ssaa(lp675
S'lilypad'
p676
a(dp677
g67
S'/usr/share/arduino/hardware/arduino'
p678
sS'bootloader'
p679
(dp680
S'extended_fuses'
p681
S'0x00'
p682
sS'high_fuses'
p683
S'0xdd'
p684
sS'low_fuses'
p685
S'0xe2'
p686
sS'lock_bits'
p687
S'0x0F'
p688
sS'file'
p689
S'LilyPadBOOT_168.hex'
p690
sS'path'
p691
S'lilypad'
p692
sS'unlock_bits'
p693
S'0x3F'
p694
ssS'upload'
p695
(dp696
S'protocol'
p697
S'arduino'
p698
sS'maximum_size'
p699
S'14336'
p700
sS'speed'
p701
S'19200'
p702
ssS'name'
p703
S'LilyPad Arduino w/ ATmega168'
p704
sS'build'
p705
(dp706
S'core'
p707
S'arduino'
p708
sS'mcu'
p709
S'atmega168'
p710
sS'f_cpu'
p711
S'8000000L'
p712
sS'variant'
p713
S'standard'
p714
ssaa(lp715
S'pro5v328'
p716
a(dp717
g67
S'/usr/share/arduino/hardware/arduino'
p718
sS'bootloader'
p719
(dp720
S'extended_fuses'
p721
S'0x05'
p722
sS'high_fuses'
p723
S'0xDA'
p724
sS'low_fuses'
p725
S'0xFF'
p726
sS'lock_bits'
p727
S'0x0F'
p728
sS'file'
p729
S'ATmegaBOOT_168_atmega328.hex'
p730
sS'path'
p731
S'atmega'
p732
sS'unlock_bits'
p733
S'0x3F'
p734
ssS'upload'
p735
(dp736
S'protocol'
p737
S'arduino'
p738
sS'maximum_size'
p739
S'30720'
p740
sS'speed'
p741
S'57600'
p742
ssS'name'
p743
S'Arduino Pro or Pro Mini (5V, 16 MHz) w/ ATmega328'
p744
sS'build'
p745
(dp746
S'core'
p747
S'arduino'
p748
sS'mcu'
p749
S'atmega328p'
p750
sS'f_cpu'
p751
S'16000000L'
p752
sS'variant'
p753
S'standard'
p754
ssaa(lp755
S'pro5v'
p756
a(dp757
g67
S'/usr/share/arduino/hardware/arduino'
p758
sS'bootloader'
p759
(dp760
S'extended_fuses'
p761
S'0x00'
p762
sS'high_fuses'
p763
S'0xdd'
p764
sS'low_fuses'
p765
S'0xff'
p766
sS'lock_bits'
p767
S'0x0F'
p768
sS'file'
p769
S'ATmegaBOOT_168_diecimila.hex'
p770
sS'path'
p771
S'atmega'
p772
sS'unlock_bits'
p773
S'0x3F'
p774
ssS'upload'
p775
(dp776
S'protocol'
p777
S'arduino'
p778
sS'maximum_size'
p779
S'14336'
p780
sS'speed'
p781
S'19200'
p782
ssS'name'
p783
S'Arduino Pro or Pro Mini (5V, 16 MHz) w/ ATmega168'
p784
sS'build'
p785
(dp786
S'core'
p787
S'arduino'
p788
sS'mcu'
p789
S'atmega168'
p790
sS'f_cpu'
p791
S'16000000L'
p792
sS'variant'
p793
S'standard'
p794
ssaa(lp795
S'pro328'
p796
a(dp797
g67
S'/usr/share/arduino/hardware/arduino'
p798
sS'bootloader'
p799
(dp800
S'extended_fuses'
p801
S'0x05'
p802
sS'high_fuses'
p803
S'0xDA'
p804
sS'low_fuses'
p805
S'0xFF'
p806
sS'lock_bits'
p807
S'0x0F'
p808
sS'file'
p809
S'ATmegaBOOT_168_atmega328_pro_8MHz.hex'
p810
sS'path'
p811
S'atmega'
p812
sS'unlock_bits'
p813
S'0x3F'
p814
ssS'upload'
p815
(dp816
S'protocol'
p817
S'arduino'
p818
sS'maximum_size'
p819
S'30720'
p820
sS'speed'
p821
S'57600'
p822
ssS'name'
p823
S'Arduino Pro or Pro Mini (3.3V, 8 MHz) w/ ATmega328'
p824
sS'build'
p825
(dp826
S'core'
p827
S'arduino'
p828
sS'mcu'
p829
S'atmega328p'
p830
sS'f_cpu'
p831
S'8000000L'
p832
sS'variant'
p833
S'standard'
p834
ssaa(lp835
S'pro'
p836
a(dp837
g67
S'/usr/share/arduino/hardware/arduino'
p838
sS'bootloader'
p839
(dp840
S'extended_fuses'
p841
S'0x00'
p842
sS'high_fuses'
p843
S'0xdd'
p844
sS'low_fuses'
p845
S'0xc6'
p846
sS'lock_bits'
p847
S'0x0F'
p848
sS'file'
p849
S'ATmegaBOOT_168_pro_8MHz.hex'
p850
sS'path'
p851
S'atmega'
p852
sS'unlock_bits'
p853
S'0x3F'
p854
ssS'upload'
p855
(dp856
S'protocol'
p857
S'arduino'
p858
sS'maximum_size'
p859
S'14336'
p860
sS'speed'
p861
S'19200'
p862
ssS'name'
p863
S'Arduino Pro or Pro Mini (3.3V, 8 MHz) w/ ATmega168'
p864
sS'build'
p865
(dp866
S'core'
p867
S'arduino'
p868
sS'mcu'
p869
S'atmega168'
p870
sS'f_cpu'
p871
S'8000000L'
p872
sS'variant'
p873
S'standard'
p874
ssaa(lp875
S'atmega168'
p876
a(dp877
g67
S'/usr/share/arduino/hardware/arduino'
p878
sS'bootloader'
p879
(dp880
S'extended_fuses'
p881
S'0x00'
p882
sS'high_fuses'
p883
S'0xdd'
p884
sS'low_fuses'
p885
S'0xff'
p886
sS'lock_bits'
p887
S'0x0F'
p888
sS'file'
p889
S'ATmegaBOOT_168_ng.hex'
p890
sS'path'
p891
S'atmega'
p892
sS'unlock_bits'
p893
S'0x3F'
p894
ssS'upload'
p895
(dp896
S'protocol'
p897
S'arduino'
p898
sS'maximum_size'
p899
S'14336'
p900
sS'speed'
p901
S'19200'
p902
ssS'name'
p903
S'Arduino NG or older w/ ATmega168'
p904
sS'build'
p905
(dp906
S'core'
p907
S'arduino'
p908
sS'mcu'
p909
S'atmega168'
p910
sS'f_cpu'
p911
S'16000000L'
p912
sS'variant'
p913
S'standard'
p914
ssaa(lp915
S'atmega8'
p916
a(dp917
g67
S'/usr/share/arduino/hardware/arduino'
p918
sS'bootloader'
p919
(dp920
S'high_fuses'
p921
S'0xca'
p922
sS'low_fuses'
p923
S'0xdf'
p924
sS'lock_bits'
p925
S'0x0F'
p926
sS'file'
p927
S'ATmegaBOOT.hex'
p928
sS'path'
p929
S'atmega8'
p930
sS'unlock_bits'
p931
S'0x3F'
p932
ssS'upload'
p933
(dp934
S'protocol'
p935
S'arduino'
p936
sS'maximum_size'
p937
S'7168'
p938
sS'speed'
p939
S'19200'
p940
ssS'name'
p941
S'Arduino NG or older w/ ATmega8'
p942
sS'build'
p943
(dp944
S'core'
p945
S'arduino'
p946
sS'mcu'
p947
S'atmega8'
p948
sS'f_cpu'
p949
S'16000000L'
p950
sS'variant'
p951
S'standard'
p952
ssaatp953
Rp954
(dp955
S'default'
p956
S'uno'
p957
sbtp958
a(S'used_libs'
p959
(lp960
S'/usr/share/arduino/libraries/Servo'
p961
aS'/usr/share/arduino/hardware/arduino/cores/arduino'
p962
atp963
a(S'make'
p964
S'/usr/bin/make'
p965
tp966
a(S'arduino_libraries_dir'
p967
S'/usr/share/arduino/libraries'
p968
tp969
a(S'cxx'
p970
S'/usr/bin/avr-g++'
p971
tp972
a(S'cflags'
p973
g2
(g3
g4
(lp974
tp975
Rp976
tp977
a(S'cxxflags'
p978
g2
(g3
g4
(lp979
S'-fno-exceptions'
p980
atp981
Rp982
tp983
a(S'arduino_variants_dir'
p984
S'/usr/share/arduino/hardware/arduino/variants'
p985
tp986
a(S'serial'
p987
S'/usr/bin/picocom'
p988
tp989
a(S'stty'
p990
S'/bin/stty'
p991
tp992
a(S'version.txt'
p993
S'/usr/share/arduino/lib/version.txt'
p994
tp995
a(S'arduino_core_dir'
p996
g962
tp997
a(S'boards.txt'
p998
(lp999
S'/usr/share/arduino/hardware/arduino/boards.txt'
p1000
atp1001
a(S'avrdude.conf'
p1002
S'/usr/share/arduino/hardware/tools/avrdude.conf'
p1003
tp1004
a(S'deps'
p1005
g2
(g3
g4
(lp1006
S'.build/uno/src/dependencies.d'
p1007
aS'.build/uno/arduino/dependencies.d'
p1008
aS'.build/uno/Servo/dependencies.d'
p1009
atp1010
Rp1011
tp1012
a.