(lp0
(S'cppflags'
p1
ccopy_reg
_reconstructor
p2
(cino.utils
SpaceList
p3
c__builtin__
list
p4
(lp5
S'-mmcu=atmega328p'
p6
aS'-DF_CPU=16000000L'
p7
aS'-DARDUINO=101'
p8
aS'-I/usr/share/arduino/hardware/arduino/cores/arduino'
p9
aS'-ffunction-sections'
p10
aS'-fdata-sections'
p11
aS'-g'
p12
aS'-Os'
p13
aS'-w'
p14
aS'-I/usr/share/arduino/hardware/arduino/variants/standard'
p15
aS'-I/usr/share/arduino/libraries/Servo'
p16
aS'-Ilib/SHT1x-master'
p17
aS'-I/usr/share/arduino/hardware/arduino/cores/arduino'
p18
atp19
Rp20
tp21
a(S'cxx'
p22
S'/usr/bin/avr-g++'
p23
tp24
a(S'build_dir'
p25
S'.build/alamode'
p26
tp27
a(S'avrdude'
p28
S'/usr/share/arduino/hardware/tools/avrdude'
p29
tp30
a(S'ar'
p31
S'/usr/bin/avr-ar'
p32
tp33
a(S'names'
p34
(dp35
S'cpp'
p36
S'%s.cpp'
p37
sS'obj'
p38
S'%s.o'
p39
sS'lib'
p40
S'lib%s.a'
p41
sS'deps'
p42
S'%s.d'
p43
stp44
a(S'ldflags'
p45
g2
(g3
g4
(lp46
g6
aS'-Wl,-Os'
p47
aS'-Wl,--gc-sections'
p48
atp49
Rp50
tp51
a(S'arduino_lib_version'
p52
g2
(cino.environment
Version
p53
c__builtin__
tuple
p54
(I1
I0
I1
tp55
tp56
Rp57
tp58
a(S'objcopy'
p59
S'/usr/bin/avr-objcopy'
p60
tp61
a(S'board_models'
p62
cino.environment
BoardModels
p63
((lp64
(lp65
S'uno'
p66
a(dp67
S'build'
p68
(dp69
S'core'
p70
S'arduino'
p71
sS'mcu'
p72
S'atmega328p'
p73
sS'f_cpu'
p74
S'16000000L'
p75
sS'variant'
p76
S'standard'
p77
ssS'bootloader'
p78
(dp79
S'extended_fuses'
p80
S'0x05'
p81
sS'high_fuses'
p82
S'0xde'
p83
sS'low_fuses'
p84
S'0xff'
p85
sS'lock_bits'
p86
S'0x0F'
p87
sS'file'
p88
S'optiboot_atmega328.hex'
p89
sS'path'
p90
S'optiboot'
p91
sS'unlock_bits'
p92
S'0x3F'
p93
ssS'upload'
p94
(dp95
S'protocol'
p96
S'arduino'
p97
sS'maximum_size'
p98
S'32256'
p99
sS'speed'
p100
S'115200'
p101
ssS'name'
p102
S'Arduino Uno'
p103
saa(lp104
S'alamode'
p105
a(dp106
S'build'
p107
(dp108
S'core'
p109
S'arduino'
p110
sS'mcu'
p111
S'atmega328p'
p112
sS'f_cpu'
p113
S'16000000L'
p114
sS'variant'
p115
S'standard'
p116
ssS'bootloader'
p117
(dp118
S'extended_fuses'
p119
S'0x05'
p120
sS'high_fuses'
p121
S'0xda'
p122
sS'low_fuses'
p123
S'0xff'
p124
sS'lock_bits'
p125
S'0x0F'
p126
sS'file'
p127
S'ATmegaBOOT_168_atmega328.hex'
p128
sS'path'
p129
S'atmega'
p130
sS'unlock_bits'
p131
S'0x3F'
p132
ssS'upload'
p133
(dp134
S'protocol'
p135
S'alamode'
p136
sS'maximum_size'
p137
S'30720'
p138
sS'speed'
p139
S'57600'
p140
ssS'name'
p141
S'AlaMode'
p142
saa(lp143
S'atmega328'
p144
a(dp145
S'build'
p146
(dp147
S'core'
p148
S'arduino'
p149
sS'mcu'
p150
S'atmega328p'
p151
sS'f_cpu'
p152
S'16000000L'
p153
sS'variant'
p154
S'standard'
p155
ssS'bootloader'
p156
(dp157
S'extended_fuses'
p158
S'0x05'
p159
sS'high_fuses'
p160
S'0xDA'
p161
sS'low_fuses'
p162
S'0xFF'
p163
sS'lock_bits'
p164
S'0x0F'
p165
sS'file'
p166
S'ATmegaBOOT_168_atmega328.hex'
p167
sS'path'
p168
S'atmega'
p169
sS'unlock_bits'
p170
S'0x3F'
p171
ssS'upload'
p172
(dp173
S'protocol'
p174
S'arduino'
p175
sS'maximum_size'
p176
S'30720'
p177
sS'speed'
p178
S'57600'
p179
ssS'name'
p180
S'Arduino Duemilanove w/ ATmega328'
p181
saa(lp182
S'diecimila'
p183
a(dp184
S'build'
p185
(dp186
S'core'
p187
S'arduino'
p188
sS'mcu'
p189
S'atmega168'
p190
sS'f_cpu'
p191
S'16000000L'
p192
sS'variant'
p193
S'standard'
p194
ssS'bootloader'
p195
(dp196
S'extended_fuses'
p197
S'0x00'
p198
sS'high_fuses'
p199
S'0xdd'
p200
sS'low_fuses'
p201
S'0xff'
p202
sS'lock_bits'
p203
S'0x0F'
p204
sS'file'
p205
S'ATmegaBOOT_168_diecimila.hex'
p206
sS'path'
p207
S'atmega'
p208
sS'unlock_bits'
p209
S'0x3F'
p210
ssS'upload'
p211
(dp212
S'protocol'
p213
S'arduino'
p214
sS'maximum_size'
p215
S'14336'
p216
sS'speed'
p217
S'19200'
p218
ssS'name'
p219
S'Arduino Diecimila or Duemilanove w/ ATmega168'
p220
saa(lp221
S'nano328'
p222
a(dp223
S'build'
p224
(dp225
S'core'
p226
S'arduino'
p227
sS'mcu'
p228
S'atmega328p'
p229
sS'f_cpu'
p230
S'16000000L'
p231
sS'variant'
p232
S'eightanaloginputs'
p233
ssS'bootloader'
p234
(dp235
S'extended_fuses'
p236
S'0x05'
p237
sS'high_fuses'
p238
S'0xDA'
p239
sS'low_fuses'
p240
S'0xFF'
p241
sS'lock_bits'
p242
S'0x0F'
p243
sS'file'
p244
S'ATmegaBOOT_168_atmega328.hex'
p245
sS'path'
p246
S'atmega'
p247
sS'unlock_bits'
p248
S'0x3F'
p249
ssS'upload'
p250
(dp251
S'protocol'
p252
S'arduino'
p253
sS'maximum_size'
p254
S'30720'
p255
sS'speed'
p256
S'57600'
p257
ssS'name'
p258
S'Arduino Nano w/ ATmega328'
p259
saa(lp260
S'nano'
p261
a(dp262
S'build'
p263
(dp264
S'core'
p265
S'arduino'
p266
sS'mcu'
p267
S'atmega168'
p268
sS'f_cpu'
p269
S'16000000L'
p270
sS'variant'
p271
S'eightanaloginputs'
p272
ssS'bootloader'
p273
(dp274
S'extended_fuses'
p275
S'0x00'
p276
sS'high_fuses'
p277
S'0xdd'
p278
sS'low_fuses'
p279
S'0xff'
p280
sS'lock_bits'
p281
S'0x0F'
p282
sS'file'
p283
S'ATmegaBOOT_168_diecimila.hex'
p284
sS'path'
p285
S'atmega'
p286
sS'unlock_bits'
p287
S'0x3F'
p288
ssS'upload'
p289
(dp290
S'protocol'
p291
S'arduino'
p292
sS'maximum_size'
p293
S'14336'
p294
sS'speed'
p295
S'19200'
p296
ssS'name'
p297
S'Arduino Nano w/ ATmega168'
p298
saa(lp299
S'mega2560'
p300
a(dp301
S'build'
p302
(dp303
S'core'
p304
S'arduino'
p305
sS'mcu'
p306
S'atmega2560'
p307
sS'f_cpu'
p308
S'16000000L'
p309
sS'variant'
p310
S'mega'
p311
ssS'bootloader'
p312
(dp313
S'extended_fuses'
p314
S'0xFD'
p315
sS'high_fuses'
p316
S'0xD8'
p317
sS'low_fuses'
p318
S'0xFF'
p319
sS'lock_bits'
p320
S'0x0F'
p321
sS'file'
p322
S'stk500boot_v2_mega2560.hex'
p323
sS'path'
p324
S'stk500v2'
p325
sS'unlock_bits'
p326
S'0x3F'
p327
ssS'upload'
p328
(dp329
S'protocol'
p330
S'stk500v2'
p331
sS'maximum_size'
p332
S'258048'
p333
sS'speed'
p334
S'115200'
p335
ssS'name'
p336
S'Arduino Mega 2560 or Mega ADK'
p337
saa(lp338
S'mega'
p339
a(dp340
S'build'
p341
(dp342
S'core'
p343
S'arduino'
p344
sS'mcu'
p345
S'atmega1280'
p346
sS'f_cpu'
p347
S'16000000L'
p348
sS'variant'
p349
S'mega'
p350
ssS'bootloader'
p351
(dp352
S'extended_fuses'
p353
S'0xF5'
p354
sS'high_fuses'
p355
S'0xDA'
p356
sS'low_fuses'
p357
S'0xFF'
p358
sS'lock_bits'
p359
S'0x0F'
p360
sS'file'
p361
S'ATmegaBOOT_168_atmega1280.hex'
p362
sS'path'
p363
S'atmega'
p364
sS'unlock_bits'
p365
S'0x3F'
p366
ssS'upload'
p367
(dp368
S'protocol'
p369
S'arduino'
p370
sS'maximum_size'
p371
S'126976'
p372
sS'speed'
p373
S'57600'
p374
ssS'name'
p375
S'Arduino Mega (ATmega1280)'
p376
saa(lp377
S'mini328'
p378
a(dp379
S'build'
p380
(dp381
S'core'
p382
S'arduino'
p383
sS'mcu'
p384
S'atmega328p'
p385
sS'f_cpu'
p386
S'16000000L'
p387
sS'variant'
p388
S'eightanaloginputs'
p389
ssS'bootloader'
p390
(dp391
S'extended_fuses'
p392
S'0x05'
p393
sS'high_fuses'
p394
S'0xd8'
p395
sS'low_fuses'
p396
S'0xff'
p397
sS'lock_bits'
p398
S'0x0F'
p399
sS'file'
p400
S'optiboot_atmega328-Mini.hex'
p401
sS'path'
p402
S'optiboot'
p403
sS'unlock_bits'
p404
S'0x3F'
p405
ssS'upload'
p406
(dp407
S'protocol'
p408
S'stk500'
p409
sS'maximum_size'
p410
S'28672'
p411
sS'speed'
p412
S'115200'
p413
ssS'name'
p414
S'Arduino Mini w/ ATmega328'
p415
saa(lp416
S'mini'
p417
a(dp418
S'build'
p419
(dp420
S'core'
p421
S'arduino'
p422
sS'mcu'
p423
S'atmega168'
p424
sS'f_cpu'
p425
S'16000000L'
p426
sS'variant'
p427
S'eightanaloginputs'
p428
ssS'bootloader'
p429
(dp430
S'extended_fuses'
p431
S'0x00'
p432
sS'high_fuses'
p433
S'0xdd'
p434
sS'low_fuses'
p435
S'0xff'
p436
sS'lock_bits'
p437
S'0x0F'
p438
sS'file'
p439
S'ATmegaBOOT_168_ng.hex'
p440
sS'path'
p441
S'atmega'
p442
sS'unlock_bits'
p443
S'0x3F'
p444
ssS'upload'
p445
(dp446
S'protocol'
p447
S'arduino'
p448
sS'maximum_size'
p449
S'14336'
p450
sS'speed'
p451
S'19200'
p452
ssS'name'
p453
S'Arduino Mini w/ ATmega168'
p454
saa(lp455
S'ethernet'
p456
a(dp457
S'build'
p458
(dp459
S'variant'
p460
S'standard'
p461
sS'mcu'
p462
S'atmega328p'
p463
sS'f_cpu'
p464
S'16000000L'
p465
sS'core'
p466
S'arduino'
p467
ssS'bootloader'
p468
(dp469
S'extended_fuses'
p470
S'0x05'
p471
sS'high_fuses'
p472
S'0xde'
p473
sS'low_fuses'
p474
S'0xff'
p475
sS'lock_bits'
p476
S'0x0F'
p477
sS'file'
p478
S'optiboot_atmega328.hex'
p479
sS'path'
p480
S'optiboot'
p481
sS'unlock_bits'
p482
S'0x3F'
p483
ssS'upload'
p484
(dp485
S'protocol'
p486
S'arduino'
p487
sS'maximum_size'
p488
S'32256'
p489
sS'speed'
p490
S'115200'
p491
ssS'name'
p492
S'Arduino Ethernet'
p493
saa(lp494
S'fio'
p495
a(dp496
S'build'
p497
(dp498
S'core'
p499
S'arduino'
p500
sS'mcu'
p501
S'atmega328p'
p502
sS'f_cpu'
p503
S'8000000L'
p504
sS'variant'
p505
S'eightanaloginputs'
p506
ssS'bootloader'
p507
(dp508
S'extended_fuses'
p509
S'0x05'
p510
sS'high_fuses'
p511
S'0xDA'
p512
sS'low_fuses'
p513
S'0xFF'
p514
sS'lock_bits'
p515
S'0x0F'
p516
sS'file'
p517
S'ATmegaBOOT_168_atmega328_pro_8MHz.hex'
p518
sS'path'
p519
S'arduino:atmega'
p520
sS'unlock_bits'
p521
S'0x3F'
p522
ssS'upload'
p523
(dp524
S'protocol'
p525
S'arduino'
p526
sS'maximum_size'
p527
S'30720'
p528
sS'speed'
p529
S'57600'
p530
ssS'name'
p531
S'Arduino Fio'
p532
saa(lp533
S'bt328'
p534
a(dp535
S'build'
p536
(dp537
S'core'
p538
S'arduino'
p539
sS'mcu'
p540
S'atmega328p'
p541
sS'f_cpu'
p542
S'16000000L'
p543
sS'variant'
p544
S'eightanaloginputs'
p545
ssS'bootloader'
p546
(dp547
S'extended_fuses'
p548
S'0x05'
p549
sS'high_fuses'
p550
S'0xd8'
p551
sS'low_fuses'
p552
S'0xff'
p553
sS'lock_bits'
p554
S'0x0F'
p555
sS'file'
p556
S'ATmegaBOOT_168_atmega328_bt.hex'
p557
sS'path'
p558
S'bt'
p559
sS'unlock_bits'
p560
S'0x3F'
p561
ssS'upload'
p562
(dp563
S'protocol'
p564
S'arduino'
p565
sS'maximum_size'
p566
S'28672'
p567
sS'speed'
p568
S'19200'
p569
sS'disable_flushing'
p570
S'true'
p571
ssS'name'
p572
S'Arduino BT w/ ATmega328'
p573
saa(lp574
S'bt'
p575
a(dp576
S'build'
p577
(dp578
S'core'
p579
S'arduino'
p580
sS'mcu'
p581
S'atmega168'
p582
sS'f_cpu'
p583
S'16000000L'
p584
sS'variant'
p585
S'eightanaloginputs'
p586
ssS'bootloader'
p587
(dp588
S'extended_fuses'
p589
S'0x00'
p590
sS'high_fuses'
p591
S'0xdd'
p592
sS'low_fuses'
p593
S'0xff'
p594
sS'lock_bits'
p595
S'0x0F'
p596
sS'file'
p597
S'ATmegaBOOT_168.hex'
p598
sS'path'
p599
S'bt'
p600
sS'unlock_bits'
p601
S'0x3F'
p602
ssS'upload'
p603
(dp604
S'protocol'
p605
S'arduino'
p606
sS'maximum_size'
p607
S'14336'
p608
sS'speed'
p609
S'19200'
p610
sS'disable_flushing'
p611
S'true'
p612
ssS'name'
p613
S'Arduino BT w/ ATmega168'
p614
saa(lp615
S'lilypad328'
p616
a(dp617
S'build'
p618
(dp619
S'core'
p620
S'arduino'
p621
sS'mcu'
p622
S'atmega328p'
p623
sS'f_cpu'
p624
S'8000000L'
p625
sS'variant'
p626
S'standard'
p627
ssS'bootloader'
p628
(dp629
S'extended_fuses'
p630
S'0x05'
p631
sS'high_fuses'
p632
S'0xDA'
p633
sS'low_fuses'
p634
S'0xFF'
p635
sS'lock_bits'
p636
S'0x0F'
p637
sS'file'
p638
S'ATmegaBOOT_168_atmega328_pro_8MHz.hex'
p639
sS'path'
p640
S'atmega'
p641
sS'unlock_bits'
p642
S'0x3F'
p643
ssS'upload'
p644
(dp645
S'protocol'
p646
S'arduino'
p647
sS'maximum_size'
p648
S'30720'
p649
sS'speed'
p650
S'57600'
p651
ssS'name'
p652
S'LilyPad Arduino w/ ATmega328'
p653
saa(lp654
S'lilypad'
p655
a(dp656
S'build'
p657
(dp658
S'core'
p659
S'arduino'
p660
sS'mcu'
p661
S'atmega168'
p662
sS'f_cpu'
p663
S'8000000L'
p664
sS'variant'
p665
S'standard'
p666
ssS'bootloader'
p667
(dp668
S'extended_fuses'
p669
S'0x00'
p670
sS'high_fuses'
p671
S'0xdd'
p672
sS'low_fuses'
p673
S'0xe2'
p674
sS'lock_bits'
p675
S'0x0F'
p676
sS'file'
p677
S'LilyPadBOOT_168.hex'
p678
sS'path'
p679
S'lilypad'
p680
sS'unlock_bits'
p681
S'0x3F'
p682
ssS'upload'
p683
(dp684
S'protocol'
p685
S'arduino'
p686
sS'maximum_size'
p687
S'14336'
p688
sS'speed'
p689
S'19200'
p690
ssS'name'
p691
S'LilyPad Arduino w/ ATmega168'
p692
saa(lp693
S'pro5v328'
p694
a(dp695
S'build'
p696
(dp697
S'core'
p698
S'arduino'
p699
sS'mcu'
p700
S'atmega328p'
p701
sS'f_cpu'
p702
S'16000000L'
p703
sS'variant'
p704
S'standard'
p705
ssS'bootloader'
p706
(dp707
S'extended_fuses'
p708
S'0x05'
p709
sS'high_fuses'
p710
S'0xDA'
p711
sS'low_fuses'
p712
S'0xFF'
p713
sS'lock_bits'
p714
S'0x0F'
p715
sS'file'
p716
S'ATmegaBOOT_168_atmega328.hex'
p717
sS'path'
p718
S'atmega'
p719
sS'unlock_bits'
p720
S'0x3F'
p721
ssS'upload'
p722
(dp723
S'protocol'
p724
S'arduino'
p725
sS'maximum_size'
p726
S'30720'
p727
sS'speed'
p728
S'57600'
p729
ssS'name'
p730
S'Arduino Pro or Pro Mini (5V, 16 MHz) w/ ATmega328'
p731
saa(lp732
S'pro5v'
p733
a(dp734
S'build'
p735
(dp736
S'core'
p737
S'arduino'
p738
sS'mcu'
p739
S'atmega168'
p740
sS'f_cpu'
p741
S'16000000L'
p742
sS'variant'
p743
S'standard'
p744
ssS'bootloader'
p745
(dp746
S'extended_fuses'
p747
S'0x00'
p748
sS'high_fuses'
p749
S'0xdd'
p750
sS'low_fuses'
p751
S'0xff'
p752
sS'lock_bits'
p753
S'0x0F'
p754
sS'file'
p755
S'ATmegaBOOT_168_diecimila.hex'
p756
sS'path'
p757
S'atmega'
p758
sS'unlock_bits'
p759
S'0x3F'
p760
ssS'upload'
p761
(dp762
S'protocol'
p763
S'arduino'
p764
sS'maximum_size'
p765
S'14336'
p766
sS'speed'
p767
S'19200'
p768
ssS'name'
p769
S'Arduino Pro or Pro Mini (5V, 16 MHz) w/ ATmega168'
p770
saa(lp771
S'pro328'
p772
a(dp773
S'build'
p774
(dp775
S'core'
p776
S'arduino'
p777
sS'mcu'
p778
S'atmega328p'
p779
sS'f_cpu'
p780
S'8000000L'
p781
sS'variant'
p782
S'standard'
p783
ssS'bootloader'
p784
(dp785
S'extended_fuses'
p786
S'0x05'
p787
sS'high_fuses'
p788
S'0xDA'
p789
sS'low_fuses'
p790
S'0xFF'
p791
sS'lock_bits'
p792
S'0x0F'
p793
sS'file'
p794
S'ATmegaBOOT_168_atmega328_pro_8MHz.hex'
p795
sS'path'
p796
S'atmega'
p797
sS'unlock_bits'
p798
S'0x3F'
p799
ssS'upload'
p800
(dp801
S'protocol'
p802
S'arduino'
p803
sS'maximum_size'
p804
S'30720'
p805
sS'speed'
p806
S'57600'
p807
ssS'name'
p808
S'Arduino Pro or Pro Mini (3.3V, 8 MHz) w/ ATmega328'
p809
saa(lp810
S'pro'
p811
a(dp812
S'build'
p813
(dp814
S'core'
p815
S'arduino'
p816
sS'mcu'
p817
S'atmega168'
p818
sS'f_cpu'
p819
S'8000000L'
p820
sS'variant'
p821
S'standard'
p822
ssS'bootloader'
p823
(dp824
S'extended_fuses'
p825
S'0x00'
p826
sS'high_fuses'
p827
S'0xdd'
p828
sS'low_fuses'
p829
S'0xc6'
p830
sS'lock_bits'
p831
S'0x0F'
p832
sS'file'
p833
S'ATmegaBOOT_168_pro_8MHz.hex'
p834
sS'path'
p835
S'atmega'
p836
sS'unlock_bits'
p837
S'0x3F'
p838
ssS'upload'
p839
(dp840
S'protocol'
p841
S'arduino'
p842
sS'maximum_size'
p843
S'14336'
p844
sS'speed'
p845
S'19200'
p846
ssS'name'
p847
S'Arduino Pro or Pro Mini (3.3V, 8 MHz) w/ ATmega168'
p848
saa(lp849
S'atmega168'
p850
a(dp851
S'build'
p852
(dp853
S'core'
p854
S'arduino'
p855
sS'mcu'
p856
S'atmega168'
p857
sS'f_cpu'
p858
S'16000000L'
p859
sS'variant'
p860
S'standard'
p861
ssS'bootloader'
p862
(dp863
S'extended_fuses'
p864
S'0x00'
p865
sS'high_fuses'
p866
S'0xdd'
p867
sS'low_fuses'
p868
S'0xff'
p869
sS'lock_bits'
p870
S'0x0F'
p871
sS'file'
p872
S'ATmegaBOOT_168_ng.hex'
p873
sS'path'
p874
S'atmega'
p875
sS'unlock_bits'
p876
S'0x3F'
p877
ssS'upload'
p878
(dp879
S'protocol'
p880
S'arduino'
p881
sS'maximum_size'
p882
S'14336'
p883
sS'speed'
p884
S'19200'
p885
ssS'name'
p886
S'Arduino NG or older w/ ATmega168'
p887
saa(lp888
S'atmega8'
p889
a(dp890
S'build'
p891
(dp892
S'core'
p893
S'arduino'
p894
sS'mcu'
p895
S'atmega8'
p896
sS'f_cpu'
p897
S'16000000L'
p898
sS'variant'
p899
S'standard'
p900
ssS'bootloader'
p901
(dp902
S'high_fuses'
p903
S'0xca'
p904
sS'low_fuses'
p905
S'0xdf'
p906
sS'lock_bits'
p907
S'0x0F'
p908
sS'file'
p909
S'ATmegaBOOT.hex'
p910
sS'path'
p911
S'atmega8'
p912
sS'unlock_bits'
p913
S'0x3F'
p914
ssS'upload'
p915
(dp916
S'protocol'
p917
S'arduino'
p918
sS'maximum_size'
p919
S'7168'
p920
sS'speed'
p921
S'19200'
p922
ssS'name'
p923
S'Arduino NG or older w/ ATmega8'
p924
saatp925
Rp926
(dp927
S'default'
p928
S'uno'
p929
sbtp930
a(S'used_libs'
p931
(lp932
S'/usr/share/arduino/libraries/Servo'
p933
aS'lib/SHT1x-master'
p934
aS'/usr/share/arduino/hardware/arduino/cores/arduino'
p935
atp936
a(S'make'
p937
S'/usr/bin/make'
p938
tp939
a(S'arduino_libraries_dir'
p940
S'/usr/share/arduino/libraries'
p941
tp942
a(S'cc'
p943
S'/usr/bin/avr-gcc'
p944
tp945
a(S'cflags'
p946
g2
(g3
g4
(lp947
tp948
Rp949
tp950
a(S'cxxflags'
p951
g2
(g3
g4
(lp952
S'-fno-exceptions'
p953
atp954
Rp955
tp956
a(S'arduino_variants_dir'
p957
S'/usr/share/arduino/hardware/arduino/variants'
p958
tp959
a(S'stty'
p960
S'/bin/stty'
p961
tp962
a(S'version.txt'
p963
S'/usr/share/arduino/lib/version.txt'
p964
tp965
a(S'arduino_core_dir'
p966
g935
tp967
a(S'boards.txt'
p968
S'/usr/share/arduino/hardware/arduino/boards.txt'
p969
tp970
a(S'avrdude.conf'
p971
S'/usr/share/arduino/hardware/tools/avrdude.conf'
p972
tp973
a(S'deps'
p974
g2
(g3
g4
(lp975
S'.build/alamode/src/dependencies.d'
p976
aS'.build/alamode/arduino/dependencies.d'
p977
aS'.build/alamode/Servo/dependencies.d'
p978
aS'.build/alamode/SHT1x-master/dependencies.d'
p979
atp980
Rp981
tp982
a.