(lp0
(S'cppflags'
p1
ccopy_reg
_reconstructor
p2
(cino.utils
SpaceList
p3
c__builtin__
list
p4
(lp5
S'-mmcu=atmega328p'
p6
aS'-DF_CPU=16000000L'
p7
aS'-DARDUINO=101'
p8
aS'-I/usr/share/arduino/hardware/arduino/cores/arduino'
p9
aS'-ffunction-sections'
p10
aS'-fdata-sections'
p11
aS'-g'
p12
aS'-Os'
p13
aS'-w'
p14
aS'-I/usr/share/arduino/hardware/arduino/variants/standard'
p15
aS'-I/usr/share/arduino/hardware/arduino/cores/arduino'
p16
atp17
Rp18
tp19
a(S'cc'
p20
S'/usr/bin/avr-gcc'
p21
tp22
a(S'arduino_libraries_dir'
p23
S'/usr/share/arduino/libraries'
p24
tp25
a(S'avrdude'
p26
S'/usr/share/arduino/hardware/tools/avrdude'
p27
tp28
a(S'ar'
p29
S'/usr/bin/avr-ar'
p30
tp31
a(S'names'
p32
(dp33
S'cpp'
p34
S'%s.cpp'
p35
sS'obj'
p36
S'%s.o'
p37
sS'lib'
p38
S'lib%s.a'
p39
sS'deps'
p40
S'%s.d'
p41
stp42
a(S'ldflags'
p43
g2
(g3
g4
(lp44
g6
aS'-Wl,-Os'
p45
aS'-Wl,--gc-sections'
p46
atp47
Rp48
tp49
a(S'arduino_lib_version'
p50
g2
(cino.environment
Version
p51
c__builtin__
tuple
p52
(I1
I0
I1
tp53
tp54
Rp55
tp56
a(S'objcopy'
p57
S'/usr/bin/avr-objcopy'
p58
tp59
a(S'board_models'
p60
cino.environment
BoardModels
p61
((lp62
(lp63
S'uno'
p64
a(dp65
S'build'
p66
(dp67
S'core'
p68
S'arduino'
p69
sS'mcu'
p70
S'atmega328p'
p71
sS'f_cpu'
p72
S'16000000L'
p73
sS'variant'
p74
S'standard'
p75
ssS'bootloader'
p76
(dp77
S'extended_fuses'
p78
S'0x05'
p79
sS'high_fuses'
p80
S'0xde'
p81
sS'low_fuses'
p82
S'0xff'
p83
sS'lock_bits'
p84
S'0x0F'
p85
sS'file'
p86
S'optiboot_atmega328.hex'
p87
sS'path'
p88
S'optiboot'
p89
sS'unlock_bits'
p90
S'0x3F'
p91
ssS'upload'
p92
(dp93
S'protocol'
p94
S'arduino'
p95
sS'maximum_size'
p96
S'32256'
p97
sS'speed'
p98
S'115200'
p99
ssS'name'
p100
S'Arduino Uno'
p101
saa(lp102
S'alamode'
p103
a(dp104
S'build'
p105
(dp106
S'core'
p107
S'arduino'
p108
sS'mcu'
p109
S'atmega328p'
p110
sS'f_cpu'
p111
S'16000000L'
p112
sS'variant'
p113
S'standard'
p114
ssS'bootloader'
p115
(dp116
S'extended_fuses'
p117
S'0x05'
p118
sS'high_fuses'
p119
S'0xde'
p120
sS'low_fuses'
p121
S'0xff'
p122
sS'lock_bits'
p123
S'0x0F'
p124
sS'file'
p125
S'optiboot_atmega328.hex'
p126
sS'path'
p127
S'optiboot'
p128
sS'unlock_bits'
p129
S'0x3F'
p130
ssS'upload'
p131
(dp132
S'protocol'
p133
S'alamode'
p134
sS'maximum_size'
p135
S'32256'
p136
sS'speed'
p137
S'115200'
p138
ssS'name'
p139
S'AlaMode'
p140
saa(lp141
S'atmega328'
p142
a(dp143
S'build'
p144
(dp145
S'core'
p146
S'arduino'
p147
sS'mcu'
p148
S'atmega328p'
p149
sS'f_cpu'
p150
S'16000000L'
p151
sS'variant'
p152
S'standard'
p153
ssS'bootloader'
p154
(dp155
S'extended_fuses'
p156
S'0x05'
p157
sS'high_fuses'
p158
S'0xDA'
p159
sS'low_fuses'
p160
S'0xFF'
p161
sS'lock_bits'
p162
S'0x0F'
p163
sS'file'
p164
S'ATmegaBOOT_168_atmega328.hex'
p165
sS'path'
p166
S'atmega'
p167
sS'unlock_bits'
p168
S'0x3F'
p169
ssS'upload'
p170
(dp171
S'protocol'
p172
S'arduino'
p173
sS'maximum_size'
p174
S'30720'
p175
sS'speed'
p176
S'57600'
p177
ssS'name'
p178
S'Arduino Duemilanove w/ ATmega328'
p179
saa(lp180
S'diecimila'
p181
a(dp182
S'build'
p183
(dp184
S'core'
p185
S'arduino'
p186
sS'mcu'
p187
S'atmega168'
p188
sS'f_cpu'
p189
S'16000000L'
p190
sS'variant'
p191
S'standard'
p192
ssS'bootloader'
p193
(dp194
S'extended_fuses'
p195
S'0x00'
p196
sS'high_fuses'
p197
S'0xdd'
p198
sS'low_fuses'
p199
S'0xff'
p200
sS'lock_bits'
p201
S'0x0F'
p202
sS'file'
p203
S'ATmegaBOOT_168_diecimila.hex'
p204
sS'path'
p205
S'atmega'
p206
sS'unlock_bits'
p207
S'0x3F'
p208
ssS'upload'
p209
(dp210
S'protocol'
p211
S'arduino'
p212
sS'maximum_size'
p213
S'14336'
p214
sS'speed'
p215
S'19200'
p216
ssS'name'
p217
S'Arduino Diecimila or Duemilanove w/ ATmega168'
p218
saa(lp219
S'nano328'
p220
a(dp221
S'build'
p222
(dp223
S'core'
p224
S'arduino'
p225
sS'mcu'
p226
S'atmega328p'
p227
sS'f_cpu'
p228
S'16000000L'
p229
sS'variant'
p230
S'eightanaloginputs'
p231
ssS'bootloader'
p232
(dp233
S'extended_fuses'
p234
S'0x05'
p235
sS'high_fuses'
p236
S'0xDA'
p237
sS'low_fuses'
p238
S'0xFF'
p239
sS'lock_bits'
p240
S'0x0F'
p241
sS'file'
p242
S'ATmegaBOOT_168_atmega328.hex'
p243
sS'path'
p244
S'atmega'
p245
sS'unlock_bits'
p246
S'0x3F'
p247
ssS'upload'
p248
(dp249
S'protocol'
p250
S'arduino'
p251
sS'maximum_size'
p252
S'30720'
p253
sS'speed'
p254
S'57600'
p255
ssS'name'
p256
S'Arduino Nano w/ ATmega328'
p257
saa(lp258
S'nano'
p259
a(dp260
S'build'
p261
(dp262
S'core'
p263
S'arduino'
p264
sS'mcu'
p265
S'atmega168'
p266
sS'f_cpu'
p267
S'16000000L'
p268
sS'variant'
p269
S'eightanaloginputs'
p270
ssS'bootloader'
p271
(dp272
S'extended_fuses'
p273
S'0x00'
p274
sS'high_fuses'
p275
S'0xdd'
p276
sS'low_fuses'
p277
S'0xff'
p278
sS'lock_bits'
p279
S'0x0F'
p280
sS'file'
p281
S'ATmegaBOOT_168_diecimila.hex'
p282
sS'path'
p283
S'atmega'
p284
sS'unlock_bits'
p285
S'0x3F'
p286
ssS'upload'
p287
(dp288
S'protocol'
p289
S'arduino'
p290
sS'maximum_size'
p291
S'14336'
p292
sS'speed'
p293
S'19200'
p294
ssS'name'
p295
S'Arduino Nano w/ ATmega168'
p296
saa(lp297
S'mega2560'
p298
a(dp299
S'build'
p300
(dp301
S'core'
p302
S'arduino'
p303
sS'mcu'
p304
S'atmega2560'
p305
sS'f_cpu'
p306
S'16000000L'
p307
sS'variant'
p308
S'mega'
p309
ssS'bootloader'
p310
(dp311
S'extended_fuses'
p312
S'0xFD'
p313
sS'high_fuses'
p314
S'0xD8'
p315
sS'low_fuses'
p316
S'0xFF'
p317
sS'lock_bits'
p318
S'0x0F'
p319
sS'file'
p320
S'stk500boot_v2_mega2560.hex'
p321
sS'path'
p322
S'stk500v2'
p323
sS'unlock_bits'
p324
S'0x3F'
p325
ssS'upload'
p326
(dp327
S'protocol'
p328
S'stk500v2'
p329
sS'maximum_size'
p330
S'258048'
p331
sS'speed'
p332
S'115200'
p333
ssS'name'
p334
S'Arduino Mega 2560 or Mega ADK'
p335
saa(lp336
S'mega'
p337
a(dp338
S'build'
p339
(dp340
S'core'
p341
S'arduino'
p342
sS'mcu'
p343
S'atmega1280'
p344
sS'f_cpu'
p345
S'16000000L'
p346
sS'variant'
p347
S'mega'
p348
ssS'bootloader'
p349
(dp350
S'extended_fuses'
p351
S'0xF5'
p352
sS'high_fuses'
p353
S'0xDA'
p354
sS'low_fuses'
p355
S'0xFF'
p356
sS'lock_bits'
p357
S'0x0F'
p358
sS'file'
p359
S'ATmegaBOOT_168_atmega1280.hex'
p360
sS'path'
p361
S'atmega'
p362
sS'unlock_bits'
p363
S'0x3F'
p364
ssS'upload'
p365
(dp366
S'protocol'
p367
S'arduino'
p368
sS'maximum_size'
p369
S'126976'
p370
sS'speed'
p371
S'57600'
p372
ssS'name'
p373
S'Arduino Mega (ATmega1280)'
p374
saa(lp375
S'mini328'
p376
a(dp377
S'build'
p378
(dp379
S'core'
p380
S'arduino'
p381
sS'mcu'
p382
S'atmega328p'
p383
sS'f_cpu'
p384
S'16000000L'
p385
sS'variant'
p386
S'eightanaloginputs'
p387
ssS'bootloader'
p388
(dp389
S'extended_fuses'
p390
S'0x05'
p391
sS'high_fuses'
p392
S'0xd8'
p393
sS'low_fuses'
p394
S'0xff'
p395
sS'lock_bits'
p396
S'0x0F'
p397
sS'file'
p398
S'optiboot_atmega328-Mini.hex'
p399
sS'path'
p400
S'optiboot'
p401
sS'unlock_bits'
p402
S'0x3F'
p403
ssS'upload'
p404
(dp405
S'protocol'
p406
S'stk500'
p407
sS'maximum_size'
p408
S'28672'
p409
sS'speed'
p410
S'115200'
p411
ssS'name'
p412
S'Arduino Mini w/ ATmega328'
p413
saa(lp414
S'mini'
p415
a(dp416
S'build'
p417
(dp418
S'core'
p419
S'arduino'
p420
sS'mcu'
p421
S'atmega168'
p422
sS'f_cpu'
p423
S'16000000L'
p424
sS'variant'
p425
S'eightanaloginputs'
p426
ssS'bootloader'
p427
(dp428
S'extended_fuses'
p429
S'0x00'
p430
sS'high_fuses'
p431
S'0xdd'
p432
sS'low_fuses'
p433
S'0xff'
p434
sS'lock_bits'
p435
S'0x0F'
p436
sS'file'
p437
S'ATmegaBOOT_168_ng.hex'
p438
sS'path'
p439
S'atmega'
p440
sS'unlock_bits'
p441
S'0x3F'
p442
ssS'upload'
p443
(dp444
S'protocol'
p445
S'arduino'
p446
sS'maximum_size'
p447
S'14336'
p448
sS'speed'
p449
S'19200'
p450
ssS'name'
p451
S'Arduino Mini w/ ATmega168'
p452
saa(lp453
S'ethernet'
p454
a(dp455
S'build'
p456
(dp457
S'variant'
p458
S'standard'
p459
sS'mcu'
p460
S'atmega328p'
p461
sS'f_cpu'
p462
S'16000000L'
p463
sS'core'
p464
S'arduino'
p465
ssS'bootloader'
p466
(dp467
S'extended_fuses'
p468
S'0x05'
p469
sS'high_fuses'
p470
S'0xde'
p471
sS'low_fuses'
p472
S'0xff'
p473
sS'lock_bits'
p474
S'0x0F'
p475
sS'file'
p476
S'optiboot_atmega328.hex'
p477
sS'path'
p478
S'optiboot'
p479
sS'unlock_bits'
p480
S'0x3F'
p481
ssS'upload'
p482
(dp483
S'protocol'
p484
S'arduino'
p485
sS'maximum_size'
p486
S'32256'
p487
sS'speed'
p488
S'115200'
p489
ssS'name'
p490
S'Arduino Ethernet'
p491
saa(lp492
S'fio'
p493
a(dp494
S'build'
p495
(dp496
S'core'
p497
S'arduino'
p498
sS'mcu'
p499
S'atmega328p'
p500
sS'f_cpu'
p501
S'8000000L'
p502
sS'variant'
p503
S'eightanaloginputs'
p504
ssS'bootloader'
p505
(dp506
S'extended_fuses'
p507
S'0x05'
p508
sS'high_fuses'
p509
S'0xDA'
p510
sS'low_fuses'
p511
S'0xFF'
p512
sS'lock_bits'
p513
S'0x0F'
p514
sS'file'
p515
S'ATmegaBOOT_168_atmega328_pro_8MHz.hex'
p516
sS'path'
p517
S'arduino:atmega'
p518
sS'unlock_bits'
p519
S'0x3F'
p520
ssS'upload'
p521
(dp522
S'protocol'
p523
S'arduino'
p524
sS'maximum_size'
p525
S'30720'
p526
sS'speed'
p527
S'57600'
p528
ssS'name'
p529
S'Arduino Fio'
p530
saa(lp531
S'bt328'
p532
a(dp533
S'build'
p534
(dp535
S'core'
p536
S'arduino'
p537
sS'mcu'
p538
S'atmega328p'
p539
sS'f_cpu'
p540
S'16000000L'
p541
sS'variant'
p542
S'eightanaloginputs'
p543
ssS'bootloader'
p544
(dp545
S'extended_fuses'
p546
S'0x05'
p547
sS'high_fuses'
p548
S'0xd8'
p549
sS'low_fuses'
p550
S'0xff'
p551
sS'lock_bits'
p552
S'0x0F'
p553
sS'file'
p554
S'ATmegaBOOT_168_atmega328_bt.hex'
p555
sS'path'
p556
S'bt'
p557
sS'unlock_bits'
p558
S'0x3F'
p559
ssS'upload'
p560
(dp561
S'protocol'
p562
S'arduino'
p563
sS'maximum_size'
p564
S'28672'
p565
sS'speed'
p566
S'19200'
p567
sS'disable_flushing'
p568
S'true'
p569
ssS'name'
p570
S'Arduino BT w/ ATmega328'
p571
saa(lp572
S'bt'
p573
a(dp574
S'build'
p575
(dp576
S'core'
p577
S'arduino'
p578
sS'mcu'
p579
S'atmega168'
p580
sS'f_cpu'
p581
S'16000000L'
p582
sS'variant'
p583
S'eightanaloginputs'
p584
ssS'bootloader'
p585
(dp586
S'extended_fuses'
p587
S'0x00'
p588
sS'high_fuses'
p589
S'0xdd'
p590
sS'low_fuses'
p591
S'0xff'
p592
sS'lock_bits'
p593
S'0x0F'
p594
sS'file'
p595
S'ATmegaBOOT_168.hex'
p596
sS'path'
p597
S'bt'
p598
sS'unlock_bits'
p599
S'0x3F'
p600
ssS'upload'
p601
(dp602
S'protocol'
p603
S'arduino'
p604
sS'maximum_size'
p605
S'14336'
p606
sS'speed'
p607
S'19200'
p608
sS'disable_flushing'
p609
S'true'
p610
ssS'name'
p611
S'Arduino BT w/ ATmega168'
p612
saa(lp613
S'lilypad328'
p614
a(dp615
S'build'
p616
(dp617
S'core'
p618
S'arduino'
p619
sS'mcu'
p620
S'atmega328p'
p621
sS'f_cpu'
p622
S'8000000L'
p623
sS'variant'
p624
S'standard'
p625
ssS'bootloader'
p626
(dp627
S'extended_fuses'
p628
S'0x05'
p629
sS'high_fuses'
p630
S'0xDA'
p631
sS'low_fuses'
p632
S'0xFF'
p633
sS'lock_bits'
p634
S'0x0F'
p635
sS'file'
p636
S'ATmegaBOOT_168_atmega328_pro_8MHz.hex'
p637
sS'path'
p638
S'atmega'
p639
sS'unlock_bits'
p640
S'0x3F'
p641
ssS'upload'
p642
(dp643
S'protocol'
p644
S'arduino'
p645
sS'maximum_size'
p646
S'30720'
p647
sS'speed'
p648
S'57600'
p649
ssS'name'
p650
S'LilyPad Arduino w/ ATmega328'
p651
saa(lp652
S'lilypad'
p653
a(dp654
S'build'
p655
(dp656
S'core'
p657
S'arduino'
p658
sS'mcu'
p659
S'atmega168'
p660
sS'f_cpu'
p661
S'8000000L'
p662
sS'variant'
p663
S'standard'
p664
ssS'bootloader'
p665
(dp666
S'extended_fuses'
p667
S'0x00'
p668
sS'high_fuses'
p669
S'0xdd'
p670
sS'low_fuses'
p671
S'0xe2'
p672
sS'lock_bits'
p673
S'0x0F'
p674
sS'file'
p675
S'LilyPadBOOT_168.hex'
p676
sS'path'
p677
S'lilypad'
p678
sS'unlock_bits'
p679
S'0x3F'
p680
ssS'upload'
p681
(dp682
S'protocol'
p683
S'arduino'
p684
sS'maximum_size'
p685
S'14336'
p686
sS'speed'
p687
S'19200'
p688
ssS'name'
p689
S'LilyPad Arduino w/ ATmega168'
p690
saa(lp691
S'pro5v328'
p692
a(dp693
S'build'
p694
(dp695
S'core'
p696
S'arduino'
p697
sS'mcu'
p698
S'atmega328p'
p699
sS'f_cpu'
p700
S'16000000L'
p701
sS'variant'
p702
S'standard'
p703
ssS'bootloader'
p704
(dp705
S'extended_fuses'
p706
S'0x05'
p707
sS'high_fuses'
p708
S'0xDA'
p709
sS'low_fuses'
p710
S'0xFF'
p711
sS'lock_bits'
p712
S'0x0F'
p713
sS'file'
p714
S'ATmegaBOOT_168_atmega328.hex'
p715
sS'path'
p716
S'atmega'
p717
sS'unlock_bits'
p718
S'0x3F'
p719
ssS'upload'
p720
(dp721
S'protocol'
p722
S'arduino'
p723
sS'maximum_size'
p724
S'30720'
p725
sS'speed'
p726
S'57600'
p727
ssS'name'
p728
S'Arduino Pro or Pro Mini (5V, 16 MHz) w/ ATmega328'
p729
saa(lp730
S'pro5v'
p731
a(dp732
S'build'
p733
(dp734
S'core'
p735
S'arduino'
p736
sS'mcu'
p737
S'atmega168'
p738
sS'f_cpu'
p739
S'16000000L'
p740
sS'variant'
p741
S'standard'
p742
ssS'bootloader'
p743
(dp744
S'extended_fuses'
p745
S'0x00'
p746
sS'high_fuses'
p747
S'0xdd'
p748
sS'low_fuses'
p749
S'0xff'
p750
sS'lock_bits'
p751
S'0x0F'
p752
sS'file'
p753
S'ATmegaBOOT_168_diecimila.hex'
p754
sS'path'
p755
S'atmega'
p756
sS'unlock_bits'
p757
S'0x3F'
p758
ssS'upload'
p759
(dp760
S'protocol'
p761
S'arduino'
p762
sS'maximum_size'
p763
S'14336'
p764
sS'speed'
p765
S'19200'
p766
ssS'name'
p767
S'Arduino Pro or Pro Mini (5V, 16 MHz) w/ ATmega168'
p768
saa(lp769
S'pro328'
p770
a(dp771
S'build'
p772
(dp773
S'core'
p774
S'arduino'
p775
sS'mcu'
p776
S'atmega328p'
p777
sS'f_cpu'
p778
S'8000000L'
p779
sS'variant'
p780
S'standard'
p781
ssS'bootloader'
p782
(dp783
S'extended_fuses'
p784
S'0x05'
p785
sS'high_fuses'
p786
S'0xDA'
p787
sS'low_fuses'
p788
S'0xFF'
p789
sS'lock_bits'
p790
S'0x0F'
p791
sS'file'
p792
S'ATmegaBOOT_168_atmega328_pro_8MHz.hex'
p793
sS'path'
p794
S'atmega'
p795
sS'unlock_bits'
p796
S'0x3F'
p797
ssS'upload'
p798
(dp799
S'protocol'
p800
S'arduino'
p801
sS'maximum_size'
p802
S'30720'
p803
sS'speed'
p804
S'57600'
p805
ssS'name'
p806
S'Arduino Pro or Pro Mini (3.3V, 8 MHz) w/ ATmega328'
p807
saa(lp808
S'pro'
p809
a(dp810
S'build'
p811
(dp812
S'core'
p813
S'arduino'
p814
sS'mcu'
p815
S'atmega168'
p816
sS'f_cpu'
p817
S'8000000L'
p818
sS'variant'
p819
S'standard'
p820
ssS'bootloader'
p821
(dp822
S'extended_fuses'
p823
S'0x00'
p824
sS'high_fuses'
p825
S'0xdd'
p826
sS'low_fuses'
p827
S'0xc6'
p828
sS'lock_bits'
p829
S'0x0F'
p830
sS'file'
p831
S'ATmegaBOOT_168_pro_8MHz.hex'
p832
sS'path'
p833
S'atmega'
p834
sS'unlock_bits'
p835
S'0x3F'
p836
ssS'upload'
p837
(dp838
S'protocol'
p839
S'arduino'
p840
sS'maximum_size'
p841
S'14336'
p842
sS'speed'
p843
S'19200'
p844
ssS'name'
p845
S'Arduino Pro or Pro Mini (3.3V, 8 MHz) w/ ATmega168'
p846
saa(lp847
S'atmega168'
p848
a(dp849
S'build'
p850
(dp851
S'core'
p852
S'arduino'
p853
sS'mcu'
p854
S'atmega168'
p855
sS'f_cpu'
p856
S'16000000L'
p857
sS'variant'
p858
S'standard'
p859
ssS'bootloader'
p860
(dp861
S'extended_fuses'
p862
S'0x00'
p863
sS'high_fuses'
p864
S'0xdd'
p865
sS'low_fuses'
p866
S'0xff'
p867
sS'lock_bits'
p868
S'0x0F'
p869
sS'file'
p870
S'ATmegaBOOT_168_ng.hex'
p871
sS'path'
p872
S'atmega'
p873
sS'unlock_bits'
p874
S'0x3F'
p875
ssS'upload'
p876
(dp877
S'protocol'
p878
S'arduino'
p879
sS'maximum_size'
p880
S'14336'
p881
sS'speed'
p882
S'19200'
p883
ssS'name'
p884
S'Arduino NG or older w/ ATmega168'
p885
saa(lp886
S'atmega8'
p887
a(dp888
S'build'
p889
(dp890
S'core'
p891
S'arduino'
p892
sS'mcu'
p893
S'atmega8'
p894
sS'f_cpu'
p895
S'16000000L'
p896
sS'variant'
p897
S'standard'
p898
ssS'bootloader'
p899
(dp900
S'high_fuses'
p901
S'0xca'
p902
sS'low_fuses'
p903
S'0xdf'
p904
sS'lock_bits'
p905
S'0x0F'
p906
sS'file'
p907
S'ATmegaBOOT.hex'
p908
sS'path'
p909
S'atmega8'
p910
sS'unlock_bits'
p911
S'0x3F'
p912
ssS'upload'
p913
(dp914
S'protocol'
p915
S'arduino'
p916
sS'maximum_size'
p917
S'7168'
p918
sS'speed'
p919
S'19200'
p920
ssS'name'
p921
S'Arduino NG or older w/ ATmega8'
p922
saatp923
Rp924
(dp925
S'default'
p926
S'uno'
p927
sbtp928
a(S'used_libs'
p929
(lp930
S'/usr/share/arduino/hardware/arduino/cores/arduino'
p931
atp932
a(S'make'
p933
S'/usr/bin/make'
p934
tp935
a(S'build_dir'
p936
S'.build/uno'
p937
tp938
a(S'cxx'
p939
S'/usr/bin/avr-g++'
p940
tp941
a(S'cflags'
p942
g2
(g3
g4
(lp943
tp944
Rp945
tp946
a(S'cxxflags'
p947
g2
(g3
g4
(lp948
S'-fno-exceptions'
p949
atp950
Rp951
tp952
a(S'arduino_variants_dir'
p953
S'/usr/share/arduino/hardware/arduino/variants'
p954
tp955
a(S'stty'
p956
S'/bin/stty'
p957
tp958
a(S'version.txt'
p959
S'/usr/share/arduino/lib/version.txt'
p960
tp961
a(S'arduino_core_dir'
p962
g931
tp963
a(S'boards.txt'
p964
S'/usr/share/arduino/hardware/arduino/boards.txt'
p965
tp966
a(S'avrdude.conf'
p967
S'/usr/share/arduino/hardware/tools/avrdude.conf'
p968
tp969
a(S'deps'
p970
g2
(g3
g4
(lp971
S'.build/uno/src/dependencies.d'
p972
aS'.build/uno/arduino/dependencies.d'
p973
atp974
Rp975
tp976
a.