(lp0
(S'cppflags'
p1
ccopy_reg
_reconstructor
p2
(cino.utils
SpaceList
p3
c__builtin__
list
p4
(lp5
S'-mmcu=atmega328p'
p6
aS'-DF_CPU=16000000L'
p7
aS'-DARDUINO=101'
p8
aS'-I/usr/share/arduino/hardware/arduino/cores/arduino'
p9
aS'-ffunction-sections'
p10
aS'-fdata-sections'
p11
aS'-g'
p12
aS'-Os'
p13
aS'-w'
p14
aS'-I/usr/share/arduino/hardware/arduino/variants/standard'
p15
aS'-I/usr/share/arduino/hardware/arduino/cores/arduino'
p16
atp17
Rp18
tp19
a(S'cxx'
p20
S'/usr/bin/avr-g++'
p21
tp22
a(S'arduino_libraries_dir'
p23
S'/usr/share/arduino/libraries'
p24
tp25
a(S'avrdude'
p26
S'/usr/share/arduino/hardware/tools/avrdude'
p27
tp28
a(S'ar'
p29
S'/usr/bin/avr-ar'
p30
tp31
a(S'names'
p32
(dp33
S'cpp'
p34
S'%s.cpp'
p35
sS'obj'
p36
S'%s.o'
p37
sS'lib'
p38
S'lib%s.a'
p39
sS'deps'
p40
S'%s.d'
p41
stp42
a(S'ldflags'
p43
g2
(g3
g4
(lp44
g6
aS'-Wl,-Os'
p45
aS'-Wl,--gc-sections'
p46
atp47
Rp48
tp49
a(S'arduino_lib_version'
p50
g2
(cino.environment
Version
p51
c__builtin__
tuple
p52
(I1
I0
I1
tp53
tp54
Rp55
tp56
a(S'objcopy'
p57
S'/usr/bin/avr-objcopy'
p58
tp59
a(S'board_models'
p60
cino.environment
BoardModels
p61
((lp62
(lp63
S'uno'
p64
a(dp65
S'bootloader'
p66
(dp67
S'extended_fuses'
p68
S'0x05'
p69
sS'high_fuses'
p70
S'0xde'
p71
sS'low_fuses'
p72
S'0xff'
p73
sS'lock_bits'
p74
S'0x0F'
p75
sS'file'
p76
S'optiboot_atmega328.hex'
p77
sS'path'
p78
S'optiboot'
p79
sS'unlock_bits'
p80
S'0x3F'
p81
ssS'upload'
p82
(dp83
S'speed'
p84
S'115200'
p85
sS'maximum_size'
p86
S'32256'
p87
sS'protocol'
p88
S'arduino'
p89
ssS'name'
p90
S'Arduino Uno'
p91
sS'build'
p92
(dp93
S'core'
p94
S'arduino'
p95
sS'mcu'
p96
S'atmega328p'
p97
sS'f_cpu'
p98
S'16000000L'
p99
sS'variant'
p100
S'standard'
p101
ssaa(lp102
S'alamode'
p103
a(dp104
S'bootloader'
p105
(dp106
S'extended_fuses'
p107
S'0x05'
p108
sS'high_fuses'
p109
S'0xda'
p110
sS'low_fuses'
p111
S'0xff'
p112
sS'lock_bits'
p113
S'0x0F'
p114
sS'file'
p115
S'ATmegaBOOT_168_atmega328.hex'
p116
sS'path'
p117
S'atmega'
p118
sS'unlock_bits'
p119
S'0x3F'
p120
ssS'upload'
p121
(dp122
S'speed'
p123
S'57600'
p124
sS'maximum_size'
p125
S'30720'
p126
sS'protocol'
p127
S'alamode'
p128
ssS'name'
p129
S'AlaMode'
p130
sS'build'
p131
(dp132
S'core'
p133
S'arduino'
p134
sS'mcu'
p135
S'atmega328p'
p136
sS'f_cpu'
p137
S'16000000L'
p138
sS'variant'
p139
S'standard'
p140
ssaa(lp141
S'atmega328'
p142
a(dp143
S'bootloader'
p144
(dp145
S'extended_fuses'
p146
S'0x05'
p147
sS'high_fuses'
p148
S'0xDA'
p149
sS'low_fuses'
p150
S'0xFF'
p151
sS'lock_bits'
p152
S'0x0F'
p153
sS'file'
p154
S'ATmegaBOOT_168_atmega328.hex'
p155
sS'path'
p156
S'atmega'
p157
sS'unlock_bits'
p158
S'0x3F'
p159
ssS'upload'
p160
(dp161
S'speed'
p162
S'57600'
p163
sS'maximum_size'
p164
S'30720'
p165
sS'protocol'
p166
S'arduino'
p167
ssS'name'
p168
S'Arduino Duemilanove w/ ATmega328'
p169
sS'build'
p170
(dp171
S'core'
p172
S'arduino'
p173
sS'mcu'
p174
S'atmega328p'
p175
sS'f_cpu'
p176
S'16000000L'
p177
sS'variant'
p178
S'standard'
p179
ssaa(lp180
S'diecimila'
p181
a(dp182
S'bootloader'
p183
(dp184
S'extended_fuses'
p185
S'0x00'
p186
sS'high_fuses'
p187
S'0xdd'
p188
sS'low_fuses'
p189
S'0xff'
p190
sS'lock_bits'
p191
S'0x0F'
p192
sS'file'
p193
S'ATmegaBOOT_168_diecimila.hex'
p194
sS'path'
p195
S'atmega'
p196
sS'unlock_bits'
p197
S'0x3F'
p198
ssS'upload'
p199
(dp200
S'speed'
p201
S'19200'
p202
sS'maximum_size'
p203
S'14336'
p204
sS'protocol'
p205
S'arduino'
p206
ssS'name'
p207
S'Arduino Diecimila or Duemilanove w/ ATmega168'
p208
sS'build'
p209
(dp210
S'core'
p211
S'arduino'
p212
sS'mcu'
p213
S'atmega168'
p214
sS'f_cpu'
p215
S'16000000L'
p216
sS'variant'
p217
S'standard'
p218
ssaa(lp219
S'nano328'
p220
a(dp221
S'bootloader'
p222
(dp223
S'extended_fuses'
p224
S'0x05'
p225
sS'high_fuses'
p226
S'0xDA'
p227
sS'low_fuses'
p228
S'0xFF'
p229
sS'lock_bits'
p230
S'0x0F'
p231
sS'file'
p232
S'ATmegaBOOT_168_atmega328.hex'
p233
sS'path'
p234
S'atmega'
p235
sS'unlock_bits'
p236
S'0x3F'
p237
ssS'upload'
p238
(dp239
S'speed'
p240
S'57600'
p241
sS'maximum_size'
p242
S'30720'
p243
sS'protocol'
p244
S'arduino'
p245
ssS'name'
p246
S'Arduino Nano w/ ATmega328'
p247
sS'build'
p248
(dp249
S'core'
p250
S'arduino'
p251
sS'mcu'
p252
S'atmega328p'
p253
sS'f_cpu'
p254
S'16000000L'
p255
sS'variant'
p256
S'eightanaloginputs'
p257
ssaa(lp258
S'nano'
p259
a(dp260
S'bootloader'
p261
(dp262
S'extended_fuses'
p263
S'0x00'
p264
sS'high_fuses'
p265
S'0xdd'
p266
sS'low_fuses'
p267
S'0xff'
p268
sS'lock_bits'
p269
S'0x0F'
p270
sS'file'
p271
S'ATmegaBOOT_168_diecimila.hex'
p272
sS'path'
p273
S'atmega'
p274
sS'unlock_bits'
p275
S'0x3F'
p276
ssS'upload'
p277
(dp278
S'speed'
p279
S'19200'
p280
sS'maximum_size'
p281
S'14336'
p282
sS'protocol'
p283
S'arduino'
p284
ssS'name'
p285
S'Arduino Nano w/ ATmega168'
p286
sS'build'
p287
(dp288
S'core'
p289
S'arduino'
p290
sS'mcu'
p291
S'atmega168'
p292
sS'f_cpu'
p293
S'16000000L'
p294
sS'variant'
p295
S'eightanaloginputs'
p296
ssaa(lp297
S'mega2560'
p298
a(dp299
S'bootloader'
p300
(dp301
S'extended_fuses'
p302
S'0xFD'
p303
sS'high_fuses'
p304
S'0xD8'
p305
sS'low_fuses'
p306
S'0xFF'
p307
sS'lock_bits'
p308
S'0x0F'
p309
sS'file'
p310
S'stk500boot_v2_mega2560.hex'
p311
sS'path'
p312
S'stk500v2'
p313
sS'unlock_bits'
p314
S'0x3F'
p315
ssS'upload'
p316
(dp317
S'speed'
p318
S'115200'
p319
sS'maximum_size'
p320
S'258048'
p321
sS'protocol'
p322
S'stk500v2'
p323
ssS'name'
p324
S'Arduino Mega 2560 or Mega ADK'
p325
sS'build'
p326
(dp327
S'core'
p328
S'arduino'
p329
sS'mcu'
p330
S'atmega2560'
p331
sS'f_cpu'
p332
S'16000000L'
p333
sS'variant'
p334
S'mega'
p335
ssaa(lp336
S'mega'
p337
a(dp338
S'bootloader'
p339
(dp340
S'extended_fuses'
p341
S'0xF5'
p342
sS'high_fuses'
p343
S'0xDA'
p344
sS'low_fuses'
p345
S'0xFF'
p346
sS'lock_bits'
p347
S'0x0F'
p348
sS'file'
p349
S'ATmegaBOOT_168_atmega1280.hex'
p350
sS'path'
p351
S'atmega'
p352
sS'unlock_bits'
p353
S'0x3F'
p354
ssS'upload'
p355
(dp356
S'speed'
p357
S'57600'
p358
sS'maximum_size'
p359
S'126976'
p360
sS'protocol'
p361
S'arduino'
p362
ssS'name'
p363
S'Arduino Mega (ATmega1280)'
p364
sS'build'
p365
(dp366
S'core'
p367
S'arduino'
p368
sS'mcu'
p369
S'atmega1280'
p370
sS'f_cpu'
p371
S'16000000L'
p372
sS'variant'
p373
S'mega'
p374
ssaa(lp375
S'mini328'
p376
a(dp377
S'bootloader'
p378
(dp379
S'extended_fuses'
p380
S'0x05'
p381
sS'high_fuses'
p382
S'0xd8'
p383
sS'low_fuses'
p384
S'0xff'
p385
sS'lock_bits'
p386
S'0x0F'
p387
sS'file'
p388
S'optiboot_atmega328-Mini.hex'
p389
sS'path'
p390
S'optiboot'
p391
sS'unlock_bits'
p392
S'0x3F'
p393
ssS'upload'
p394
(dp395
S'speed'
p396
S'115200'
p397
sS'maximum_size'
p398
S'28672'
p399
sS'protocol'
p400
S'stk500'
p401
ssS'name'
p402
S'Arduino Mini w/ ATmega328'
p403
sS'build'
p404
(dp405
S'core'
p406
S'arduino'
p407
sS'mcu'
p408
S'atmega328p'
p409
sS'f_cpu'
p410
S'16000000L'
p411
sS'variant'
p412
S'eightanaloginputs'
p413
ssaa(lp414
S'mini'
p415
a(dp416
S'bootloader'
p417
(dp418
S'extended_fuses'
p419
S'0x00'
p420
sS'high_fuses'
p421
S'0xdd'
p422
sS'low_fuses'
p423
S'0xff'
p424
sS'lock_bits'
p425
S'0x0F'
p426
sS'file'
p427
S'ATmegaBOOT_168_ng.hex'
p428
sS'path'
p429
S'atmega'
p430
sS'unlock_bits'
p431
S'0x3F'
p432
ssS'upload'
p433
(dp434
S'speed'
p435
S'19200'
p436
sS'maximum_size'
p437
S'14336'
p438
sS'protocol'
p439
S'arduino'
p440
ssS'name'
p441
S'Arduino Mini w/ ATmega168'
p442
sS'build'
p443
(dp444
S'core'
p445
S'arduino'
p446
sS'mcu'
p447
S'atmega168'
p448
sS'f_cpu'
p449
S'16000000L'
p450
sS'variant'
p451
S'eightanaloginputs'
p452
ssaa(lp453
S'ethernet'
p454
a(dp455
S'bootloader'
p456
(dp457
S'extended_fuses'
p458
S'0x05'
p459
sS'high_fuses'
p460
S'0xde'
p461
sS'low_fuses'
p462
S'0xff'
p463
sS'lock_bits'
p464
S'0x0F'
p465
sS'file'
p466
S'optiboot_atmega328.hex'
p467
sS'path'
p468
S'optiboot'
p469
sS'unlock_bits'
p470
S'0x3F'
p471
ssS'upload'
p472
(dp473
S'speed'
p474
S'115200'
p475
sS'maximum_size'
p476
S'32256'
p477
sS'protocol'
p478
S'arduino'
p479
ssS'name'
p480
S'Arduino Ethernet'
p481
sS'build'
p482
(dp483
S'f_cpu'
p484
S'16000000L'
p485
sS'mcu'
p486
S'atmega328p'
p487
sS'variant'
p488
S'standard'
p489
sS'core'
p490
S'arduino'
p491
ssaa(lp492
S'fio'
p493
a(dp494
S'bootloader'
p495
(dp496
S'extended_fuses'
p497
S'0x05'
p498
sS'high_fuses'
p499
S'0xDA'
p500
sS'low_fuses'
p501
S'0xFF'
p502
sS'lock_bits'
p503
S'0x0F'
p504
sS'file'
p505
S'ATmegaBOOT_168_atmega328_pro_8MHz.hex'
p506
sS'path'
p507
S'arduino:atmega'
p508
sS'unlock_bits'
p509
S'0x3F'
p510
ssS'upload'
p511
(dp512
S'speed'
p513
S'57600'
p514
sS'maximum_size'
p515
S'30720'
p516
sS'protocol'
p517
S'arduino'
p518
ssS'name'
p519
S'Arduino Fio'
p520
sS'build'
p521
(dp522
S'core'
p523
S'arduino'
p524
sS'mcu'
p525
S'atmega328p'
p526
sS'f_cpu'
p527
S'8000000L'
p528
sS'variant'
p529
S'eightanaloginputs'
p530
ssaa(lp531
S'bt328'
p532
a(dp533
S'bootloader'
p534
(dp535
S'extended_fuses'
p536
S'0x05'
p537
sS'high_fuses'
p538
S'0xd8'
p539
sS'low_fuses'
p540
S'0xff'
p541
sS'lock_bits'
p542
S'0x0F'
p543
sS'file'
p544
S'ATmegaBOOT_168_atmega328_bt.hex'
p545
sS'path'
p546
S'bt'
p547
sS'unlock_bits'
p548
S'0x3F'
p549
ssS'upload'
p550
(dp551
S'speed'
p552
S'19200'
p553
sS'maximum_size'
p554
S'28672'
p555
sS'protocol'
p556
S'arduino'
p557
sS'disable_flushing'
p558
S'true'
p559
ssS'name'
p560
S'Arduino BT w/ ATmega328'
p561
sS'build'
p562
(dp563
S'core'
p564
S'arduino'
p565
sS'mcu'
p566
S'atmega328p'
p567
sS'f_cpu'
p568
S'16000000L'
p569
sS'variant'
p570
S'eightanaloginputs'
p571
ssaa(lp572
S'bt'
p573
a(dp574
S'bootloader'
p575
(dp576
S'extended_fuses'
p577
S'0x00'
p578
sS'high_fuses'
p579
S'0xdd'
p580
sS'low_fuses'
p581
S'0xff'
p582
sS'lock_bits'
p583
S'0x0F'
p584
sS'file'
p585
S'ATmegaBOOT_168.hex'
p586
sS'path'
p587
S'bt'
p588
sS'unlock_bits'
p589
S'0x3F'
p590
ssS'upload'
p591
(dp592
S'speed'
p593
S'19200'
p594
sS'maximum_size'
p595
S'14336'
p596
sS'protocol'
p597
S'arduino'
p598
sS'disable_flushing'
p599
S'true'
p600
ssS'name'
p601
S'Arduino BT w/ ATmega168'
p602
sS'build'
p603
(dp604
S'core'
p605
S'arduino'
p606
sS'mcu'
p607
S'atmega168'
p608
sS'f_cpu'
p609
S'16000000L'
p610
sS'variant'
p611
S'eightanaloginputs'
p612
ssaa(lp613
S'lilypad328'
p614
a(dp615
S'bootloader'
p616
(dp617
S'extended_fuses'
p618
S'0x05'
p619
sS'high_fuses'
p620
S'0xDA'
p621
sS'low_fuses'
p622
S'0xFF'
p623
sS'lock_bits'
p624
S'0x0F'
p625
sS'file'
p626
S'ATmegaBOOT_168_atmega328_pro_8MHz.hex'
p627
sS'path'
p628
S'atmega'
p629
sS'unlock_bits'
p630
S'0x3F'
p631
ssS'upload'
p632
(dp633
S'speed'
p634
S'57600'
p635
sS'maximum_size'
p636
S'30720'
p637
sS'protocol'
p638
S'arduino'
p639
ssS'name'
p640
S'LilyPad Arduino w/ ATmega328'
p641
sS'build'
p642
(dp643
S'core'
p644
S'arduino'
p645
sS'mcu'
p646
S'atmega328p'
p647
sS'f_cpu'
p648
S'8000000L'
p649
sS'variant'
p650
S'standard'
p651
ssaa(lp652
S'lilypad'
p653
a(dp654
S'bootloader'
p655
(dp656
S'extended_fuses'
p657
S'0x00'
p658
sS'high_fuses'
p659
S'0xdd'
p660
sS'low_fuses'
p661
S'0xe2'
p662
sS'lock_bits'
p663
S'0x0F'
p664
sS'file'
p665
S'LilyPadBOOT_168.hex'
p666
sS'path'
p667
S'lilypad'
p668
sS'unlock_bits'
p669
S'0x3F'
p670
ssS'upload'
p671
(dp672
S'speed'
p673
S'19200'
p674
sS'maximum_size'
p675
S'14336'
p676
sS'protocol'
p677
S'arduino'
p678
ssS'name'
p679
S'LilyPad Arduino w/ ATmega168'
p680
sS'build'
p681
(dp682
S'core'
p683
S'arduino'
p684
sS'mcu'
p685
S'atmega168'
p686
sS'f_cpu'
p687
S'8000000L'
p688
sS'variant'
p689
S'standard'
p690
ssaa(lp691
S'pro5v328'
p692
a(dp693
S'bootloader'
p694
(dp695
S'extended_fuses'
p696
S'0x05'
p697
sS'high_fuses'
p698
S'0xDA'
p699
sS'low_fuses'
p700
S'0xFF'
p701
sS'lock_bits'
p702
S'0x0F'
p703
sS'file'
p704
S'ATmegaBOOT_168_atmega328.hex'
p705
sS'path'
p706
S'atmega'
p707
sS'unlock_bits'
p708
S'0x3F'
p709
ssS'upload'
p710
(dp711
S'speed'
p712
S'57600'
p713
sS'maximum_size'
p714
S'30720'
p715
sS'protocol'
p716
S'arduino'
p717
ssS'name'
p718
S'Arduino Pro or Pro Mini (5V, 16 MHz) w/ ATmega328'
p719
sS'build'
p720
(dp721
S'core'
p722
S'arduino'
p723
sS'mcu'
p724
S'atmega328p'
p725
sS'f_cpu'
p726
S'16000000L'
p727
sS'variant'
p728
S'standard'
p729
ssaa(lp730
S'pro5v'
p731
a(dp732
S'bootloader'
p733
(dp734
S'extended_fuses'
p735
S'0x00'
p736
sS'high_fuses'
p737
S'0xdd'
p738
sS'low_fuses'
p739
S'0xff'
p740
sS'lock_bits'
p741
S'0x0F'
p742
sS'file'
p743
S'ATmegaBOOT_168_diecimila.hex'
p744
sS'path'
p745
S'atmega'
p746
sS'unlock_bits'
p747
S'0x3F'
p748
ssS'upload'
p749
(dp750
S'speed'
p751
S'19200'
p752
sS'maximum_size'
p753
S'14336'
p754
sS'protocol'
p755
S'arduino'
p756
ssS'name'
p757
S'Arduino Pro or Pro Mini (5V, 16 MHz) w/ ATmega168'
p758
sS'build'
p759
(dp760
S'core'
p761
S'arduino'
p762
sS'mcu'
p763
S'atmega168'
p764
sS'f_cpu'
p765
S'16000000L'
p766
sS'variant'
p767
S'standard'
p768
ssaa(lp769
S'pro328'
p770
a(dp771
S'bootloader'
p772
(dp773
S'extended_fuses'
p774
S'0x05'
p775
sS'high_fuses'
p776
S'0xDA'
p777
sS'low_fuses'
p778
S'0xFF'
p779
sS'lock_bits'
p780
S'0x0F'
p781
sS'file'
p782
S'ATmegaBOOT_168_atmega328_pro_8MHz.hex'
p783
sS'path'
p784
S'atmega'
p785
sS'unlock_bits'
p786
S'0x3F'
p787
ssS'upload'
p788
(dp789
S'speed'
p790
S'57600'
p791
sS'maximum_size'
p792
S'30720'
p793
sS'protocol'
p794
S'arduino'
p795
ssS'name'
p796
S'Arduino Pro or Pro Mini (3.3V, 8 MHz) w/ ATmega328'
p797
sS'build'
p798
(dp799
S'core'
p800
S'arduino'
p801
sS'mcu'
p802
S'atmega328p'
p803
sS'f_cpu'
p804
S'8000000L'
p805
sS'variant'
p806
S'standard'
p807
ssaa(lp808
S'pro'
p809
a(dp810
S'bootloader'
p811
(dp812
S'extended_fuses'
p813
S'0x00'
p814
sS'high_fuses'
p815
S'0xdd'
p816
sS'low_fuses'
p817
S'0xc6'
p818
sS'lock_bits'
p819
S'0x0F'
p820
sS'file'
p821
S'ATmegaBOOT_168_pro_8MHz.hex'
p822
sS'path'
p823
S'atmega'
p824
sS'unlock_bits'
p825
S'0x3F'
p826
ssS'upload'
p827
(dp828
S'speed'
p829
S'19200'
p830
sS'maximum_size'
p831
S'14336'
p832
sS'protocol'
p833
S'arduino'
p834
ssS'name'
p835
S'Arduino Pro or Pro Mini (3.3V, 8 MHz) w/ ATmega168'
p836
sS'build'
p837
(dp838
S'core'
p839
S'arduino'
p840
sS'mcu'
p841
S'atmega168'
p842
sS'f_cpu'
p843
S'8000000L'
p844
sS'variant'
p845
S'standard'
p846
ssaa(lp847
S'atmega168'
p848
a(dp849
S'bootloader'
p850
(dp851
S'extended_fuses'
p852
S'0x00'
p853
sS'high_fuses'
p854
S'0xdd'
p855
sS'low_fuses'
p856
S'0xff'
p857
sS'lock_bits'
p858
S'0x0F'
p859
sS'file'
p860
S'ATmegaBOOT_168_ng.hex'
p861
sS'path'
p862
S'atmega'
p863
sS'unlock_bits'
p864
S'0x3F'
p865
ssS'upload'
p866
(dp867
S'speed'
p868
S'19200'
p869
sS'maximum_size'
p870
S'14336'
p871
sS'protocol'
p872
S'arduino'
p873
ssS'name'
p874
S'Arduino NG or older w/ ATmega168'
p875
sS'build'
p876
(dp877
S'core'
p878
S'arduino'
p879
sS'mcu'
p880
S'atmega168'
p881
sS'f_cpu'
p882
S'16000000L'
p883
sS'variant'
p884
S'standard'
p885
ssaa(lp886
S'atmega8'
p887
a(dp888
S'bootloader'
p889
(dp890
S'high_fuses'
p891
S'0xca'
p892
sS'low_fuses'
p893
S'0xdf'
p894
sS'lock_bits'
p895
S'0x0F'
p896
sS'file'
p897
S'ATmegaBOOT.hex'
p898
sS'path'
p899
S'atmega8'
p900
sS'unlock_bits'
p901
S'0x3F'
p902
ssS'upload'
p903
(dp904
S'speed'
p905
S'19200'
p906
sS'maximum_size'
p907
S'7168'
p908
sS'protocol'
p909
S'arduino'
p910
ssS'name'
p911
S'Arduino NG or older w/ ATmega8'
p912
sS'build'
p913
(dp914
S'core'
p915
S'arduino'
p916
sS'mcu'
p917
S'atmega8'
p918
sS'f_cpu'
p919
S'16000000L'
p920
sS'variant'
p921
S'standard'
p922
ssaatp923
Rp924
(dp925
S'default'
p926
S'uno'
p927
sbtp928
a(S'used_libs'
p929
(lp930
S'/usr/share/arduino/hardware/arduino/cores/arduino'
p931
atp932
a(S'make'
p933
S'/usr/bin/make'
p934
tp935
a(S'build_dir'
p936
S'.build/alamode'
p937
tp938
a(S'cc'
p939
S'/usr/bin/avr-gcc'
p940
tp941
a(S'cflags'
p942
g2
(g3
g4
(lp943
tp944
Rp945
tp946
a(S'cxxflags'
p947
g2
(g3
g4
(lp948
S'-fno-exceptions'
p949
atp950
Rp951
tp952
a(S'arduino_variants_dir'
p953
S'/usr/share/arduino/hardware/arduino/variants'
p954
tp955
a(S'stty'
p956
S'/bin/stty'
p957
tp958
a(S'version.txt'
p959
S'/usr/share/arduino/lib/version.txt'
p960
tp961
a(S'arduino_core_dir'
p962
g931
tp963
a(S'boards.txt'
p964
S'/usr/share/arduino/hardware/arduino/boards.txt'
p965
tp966
a(S'avrdude.conf'
p967
S'/usr/share/arduino/hardware/tools/avrdude.conf'
p968
tp969
a(S'deps'
p970
g2
(g3
g4
(lp971
S'.build/alamode/src/dependencies.d'
p972
aS'.build/alamode/arduino/dependencies.d'
p973
atp974
Rp975
tp976
a.